ARM GAS  /var/folders/8x/_y6g3dfs0698dfd49y4vcg_w0000gn/T//ccpEJ4cE.s 			page 1


   1              		.cpu cortex-m3
   2              		.arch armv7-m
   3              		.fpu softvfp
   4              		.eabi_attribute 20, 1
   5              		.eabi_attribute 21, 1
   6              		.eabi_attribute 23, 3
   7              		.eabi_attribute 24, 1
   8              		.eabi_attribute 25, 1
   9              		.eabi_attribute 26, 1
  10              		.eabi_attribute 30, 1
  11              		.eabi_attribute 34, 1
  12              		.eabi_attribute 18, 4
  13              		.file	"main.c"
  14              		.text
  15              	.Ltext0:
  16              		.cfi_sections	.debug_frame
  17              		.file 1 "Core/Src/main.c"
  18              		.section	.rodata.HallPositionOutput.str1.4,"aMS",%progbits,1
  19              		.align	2
  20              	.LC0:
  21 0000 48414C4C 		.ascii	"HALL A = 1, HALL B = 0, HALL C = 1\015\000"
  21      2041203D 
  21      20312C20 
  21      48414C4C 
  21      2042203D 
  22              		.align	2
  23              	.LC1:
  24 0024 48414C4C 		.ascii	"HALL A = 1, HALL B = 0, HALL C = 0\015\000"
  24      2041203D 
  24      20312C20 
  24      48414C4C 
  24      2042203D 
  25              		.align	2
  26              	.LC2:
  27 0048 48414C4C 		.ascii	"HALL A = 1, HALL B = 1, HALL C = 0\015\000"
  27      2041203D 
  27      20312C20 
  27      48414C4C 
  27      2042203D 
  28              		.align	2
  29              	.LC3:
  30 006c 48414C4C 		.ascii	"HALL A = 0, HALL B = 1, HALL C = 0\015\000"
  30      2041203D 
  30      20302C20 
  30      48414C4C 
  30      2042203D 
  31              		.align	2
  32              	.LC4:
  33 0090 48414C4C 		.ascii	"HALL A = 0, HALL B = 1, HALL C = 1\015\000"
  33      2041203D 
  33      20302C20 
  33      48414C4C 
  33      2042203D 
  34              		.align	2
  35              	.LC5:
  36 00b4 48414C4C 		.ascii	"HALL A = 0, HALL B = 0, HALL C = 1\015\000"
  36      2041203D 
ARM GAS  /var/folders/8x/_y6g3dfs0698dfd49y4vcg_w0000gn/T//ccpEJ4cE.s 			page 2


  36      20302C20 
  36      48414C4C 
  36      2042203D 
  37              		.align	2
  38              	.LC6:
  39 00d8 496E7661 		.ascii	"Invalid angle: %d\015\012\000"
  39      6C696420 
  39      616E676C 
  39      653A2025 
  39      640D0A00 
  40              		.section	.text.HallPositionOutput,"ax",%progbits
  41              		.align	1
  42              		.global	HallPositionOutput
  43              		.syntax unified
  44              		.thumb
  45              		.thumb_func
  47              	HallPositionOutput:
  48              	.LVL0:
  49              	.LFB71:
   1:Core/Src/main.c **** /* USER CODE BEGIN Header */
   2:Core/Src/main.c **** /**
   3:Core/Src/main.c ****  ******************************************************************************
   4:Core/Src/main.c ****  * @file           : main.c
   5:Core/Src/main.c ****  * @brief          : Main program body
   6:Core/Src/main.c ****  ******************************************************************************
   7:Core/Src/main.c ****  * @attention
   8:Core/Src/main.c ****  *
   9:Core/Src/main.c ****  * Copyright (c) 2025 STMicroelectronics.
  10:Core/Src/main.c ****  * All rights reserved.
  11:Core/Src/main.c ****  *
  12:Core/Src/main.c ****  * This software is licensed under terms that can be found in the LICENSE file
  13:Core/Src/main.c ****  * in the root directory of this software component.
  14:Core/Src/main.c ****  * If no LICENSE file comes with this software, it is provided AS-IS.
  15:Core/Src/main.c ****  *
  16:Core/Src/main.c ****  ******************************************************************************
  17:Core/Src/main.c ****  */
  18:Core/Src/main.c **** /* USER CODE END Header */
  19:Core/Src/main.c **** /* Includes ------------------------------------------------------------------*/
  20:Core/Src/main.c **** #include "main.h"
  21:Core/Src/main.c **** #include "adc.h"
  22:Core/Src/main.c **** #include "tim.h"
  23:Core/Src/main.c **** #include "usart.h"
  24:Core/Src/main.c **** #include "gpio.h"
  25:Core/Src/main.c **** 
  26:Core/Src/main.c **** /* Private includes ----------------------------------------------------------*/
  27:Core/Src/main.c **** /* USER CODE BEGIN Includes */
  28:Core/Src/main.c **** #include "atan_lut.h"
  29:Core/Src/main.c **** #include "math.h"
  30:Core/Src/main.c **** #include "stm32f1xx_hal_gpio.h"
  31:Core/Src/main.c **** #include <stdio.h>
  32:Core/Src/main.c **** /* USER CODE END Includes */
  33:Core/Src/main.c **** 
  34:Core/Src/main.c **** /* Private typedef -----------------------------------------------------------*/
  35:Core/Src/main.c **** /* USER CODE BEGIN PTD */
  36:Core/Src/main.c **** 
  37:Core/Src/main.c **** /* USER CODE END PTD */
  38:Core/Src/main.c **** 
ARM GAS  /var/folders/8x/_y6g3dfs0698dfd49y4vcg_w0000gn/T//ccpEJ4cE.s 			page 3


  39:Core/Src/main.c **** /* Private define ------------------------------------------------------------*/
  40:Core/Src/main.c **** /* USER CODE BEGIN PD */
  41:Core/Src/main.c **** #define SIN_PERIODS_PER_REV 1
  42:Core/Src/main.c **** #define HALL_PERIODS_PER_REV 20
  43:Core/Src/main.c **** #define OFFSET 0
  44:Core/Src/main.c **** #define LUT_SIZE 1024
  45:Core/Src/main.c **** #define ADC_MAX 3479.0
  46:Core/Src/main.c **** #define ADC_MIN 1850.0
  47:Core/Src/main.c **** 
  48:Core/Src/main.c **** /* USER CODE END PD */
  49:Core/Src/main.c **** 
  50:Core/Src/main.c **** /* Private macro -------------------------------------------------------------*/
  51:Core/Src/main.c **** /* USER CODE BEGIN PM */
  52:Core/Src/main.c **** 
  53:Core/Src/main.c **** /* USER CODE END PM */
  54:Core/Src/main.c **** 
  55:Core/Src/main.c **** /* Private variables ---------------------------------------------------------*/
  56:Core/Src/main.c **** 
  57:Core/Src/main.c **** /* USER CODE BEGIN PV */
  58:Core/Src/main.c **** 
  59:Core/Src/main.c **** /* USER CODE END PV */
  60:Core/Src/main.c **** 
  61:Core/Src/main.c **** /* Private function prototypes -----------------------------------------------*/
  62:Core/Src/main.c **** void SystemClock_Config(void);
  63:Core/Src/main.c **** /* USER CODE BEGIN PFP */
  64:Core/Src/main.c **** static float fast_atan(uint16_t ADC_C, uint16_t ADC_S);
  65:Core/Src/main.c **** void HallPositionOutput(int theta_deg);
  66:Core/Src/main.c **** #define PUTCHAR_PROTOTYPE int __io_putchar(int ch)
  67:Core/Src/main.c **** /* USER CODE END PFP */
  68:Core/Src/main.c **** 
  69:Core/Src/main.c **** /* Private user code ---------------------------------------------------------*/
  70:Core/Src/main.c **** /* USER CODE BEGIN 0 */
  71:Core/Src/main.c **** 
  72:Core/Src/main.c **** /* USER CODE END 0 */
  73:Core/Src/main.c **** 
  74:Core/Src/main.c **** /**
  75:Core/Src/main.c ****   * @brief  The application entry point.
  76:Core/Src/main.c ****   * @retval int
  77:Core/Src/main.c ****   */
  78:Core/Src/main.c **** int main(void)
  79:Core/Src/main.c **** {
  80:Core/Src/main.c **** 
  81:Core/Src/main.c ****   /* USER CODE BEGIN 1 */
  82:Core/Src/main.c **** 
  83:Core/Src/main.c ****   uint16_t sin_adc;
  84:Core/Src/main.c ****   uint16_t cos_adc;
  85:Core/Src/main.c ****   float theta_rad;
  86:Core/Src/main.c ****   int theta_deg; // only for debugging
  87:Core/Src/main.c **** 
  88:Core/Src/main.c ****   int sin;
  89:Core/Src/main.c ****   int cos; 
  90:Core/Src/main.c ****   int rad; 
  91:Core/Src/main.c ****   int deg;
  92:Core/Src/main.c ****   /* USER CODE END 1 */
  93:Core/Src/main.c **** 
  94:Core/Src/main.c ****   /* MCU Configuration--------------------------------------------------------*/
  95:Core/Src/main.c **** 
ARM GAS  /var/folders/8x/_y6g3dfs0698dfd49y4vcg_w0000gn/T//ccpEJ4cE.s 			page 4


  96:Core/Src/main.c ****   /* Reset of all peripherals, Initializes the Flash interface and the Systick. */
  97:Core/Src/main.c ****   HAL_Init();
  98:Core/Src/main.c **** 
  99:Core/Src/main.c ****   /* USER CODE BEGIN Init */
 100:Core/Src/main.c **** 
 101:Core/Src/main.c ****   /* USER CODE END Init */
 102:Core/Src/main.c **** 
 103:Core/Src/main.c ****   /* Configure the system clock */
 104:Core/Src/main.c ****   SystemClock_Config();
 105:Core/Src/main.c **** 
 106:Core/Src/main.c ****   /* USER CODE BEGIN SysInit */
 107:Core/Src/main.c **** 
 108:Core/Src/main.c ****   /* USER CODE END SysInit */
 109:Core/Src/main.c **** 
 110:Core/Src/main.c ****   /* Initialize all configured peripherals */
 111:Core/Src/main.c ****   MX_GPIO_Init();
 112:Core/Src/main.c ****   MX_ADC1_Init();
 113:Core/Src/main.c ****   MX_ADC2_Init();
 114:Core/Src/main.c ****   MX_USART1_UART_Init();
 115:Core/Src/main.c ****   MX_TIM2_Init();
 116:Core/Src/main.c ****   /* USER CODE BEGIN 2 */
 117:Core/Src/main.c **** 
 118:Core/Src/main.c ****   /* USER CODE END 2 */
 119:Core/Src/main.c **** 
 120:Core/Src/main.c ****   /* Infinite loop */
 121:Core/Src/main.c ****   /* USER CODE BEGIN WHILE */
 122:Core/Src/main.c ****   while (1) {
 123:Core/Src/main.c ****     HAL_ADC_Start(&hadc1); // Needs to be called every time
 124:Core/Src/main.c ****     HAL_ADC_PollForConversion(&hadc1, HAL_MAX_DELAY);
 125:Core/Src/main.c ****     cos_adc = HAL_ADC_GetValue(&hadc1);
 126:Core/Src/main.c ****     HAL_ADC_Start(&hadc2); // Needs to be called every time
 127:Core/Src/main.c ****     HAL_ADC_PollForConversion(&hadc2, HAL_MAX_DELAY);
 128:Core/Src/main.c ****     sin_adc = HAL_ADC_GetValue(&hadc2);
 129:Core/Src/main.c **** 
 130:Core/Src/main.c ****     // cos_adc = 1000; 
 131:Core/Src/main.c ****     // sin_adc = 3000; // Test values for debugging
 132:Core/Src/main.c ****     
 133:Core/Src/main.c ****     // theta_rad = fast_atan(cos_adc, sin_adc);
 134:Core/Src/main.c ****     const float midpoint = (ADC_MAX + ADC_MIN) / 2.0f;
 135:Core/Src/main.c ****     float num = cos_adc - midpoint;
 136:Core/Src/main.c ****     float den = sin_adc - midpoint;
 137:Core/Src/main.c ****     if (den != 0){
 138:Core/Src/main.c ****       theta_rad = atan2f(num, den); // Use atan2 for better handling of quadrants
 139:Core/Src/main.c ****     }
 140:Core/Src/main.c ****     else {
 141:Core/Src/main.c ****       theta_rad = 0; // Handle the case where den is zero to avoid division by zero
 142:Core/Src/main.c ****     }
 143:Core/Src/main.c ****       
 144:Core/Src/main.c **** 
 145:Core/Src/main.c ****    
 146:Core/Src/main.c ****     theta_deg = (int)(180.0 / M_PI * theta_rad)+180;
 147:Core/Src/main.c **** 
 148:Core/Src/main.c ****     // if (cos_adc > 180) {
 149:Core/Src/main.c ****     //   HAL_GPIO_WritePin(DEBUG_LED_GPIO_Port, DEBUG_LED_Pin, GPIO_PIN_SET);
 150:Core/Src/main.c ****     // } else {
 151:Core/Src/main.c ****     //   HAL_GPIO_WritePin(DEBUG_LED_GPIO_Port, DEBUG_LED_Pin, GPIO_PIN_RESET);
 152:Core/Src/main.c ****     // }
ARM GAS  /var/folders/8x/_y6g3dfs0698dfd49y4vcg_w0000gn/T//ccpEJ4cE.s 			page 5


 153:Core/Src/main.c ****     /* USER CODE END WHILE */
 154:Core/Src/main.c **** 
 155:Core/Src/main.c ****     /* USER CODE BEGIN 3 */
 156:Core/Src/main.c ****     rad = (int)(theta_rad * 1000); // Convert to milliradians
 157:Core/Src/main.c ****     printf("ADC_C: %d ADC_S: %d theta_deg: %d rad: %d (millirad)\r\n", cos_adc, sin_adc, theta_deg,
 158:Core/Src/main.c **** 
 159:Core/Src/main.c ****     HallPositionOutput_10Pair(theta_deg); // Call the function to output the Hall position
 160:Core/Src/main.c ****     HAL_Delay(10); 
 161:Core/Src/main.c ****     
 162:Core/Src/main.c ****   
 163:Core/Src/main.c ****   } 
 164:Core/Src/main.c ****   /* USER CODE END 3 */
 165:Core/Src/main.c **** }
 166:Core/Src/main.c **** 
 167:Core/Src/main.c **** /**
 168:Core/Src/main.c ****   * @brief System Clock Configuration
 169:Core/Src/main.c ****   * @retval None
 170:Core/Src/main.c ****   */
 171:Core/Src/main.c **** void SystemClock_Config(void)
 172:Core/Src/main.c **** {
 173:Core/Src/main.c ****   RCC_OscInitTypeDef RCC_OscInitStruct = {0};
 174:Core/Src/main.c ****   RCC_ClkInitTypeDef RCC_ClkInitStruct = {0};
 175:Core/Src/main.c ****   RCC_PeriphCLKInitTypeDef PeriphClkInit = {0};
 176:Core/Src/main.c **** 
 177:Core/Src/main.c ****   /** Initializes the RCC Oscillators according to the specified parameters
 178:Core/Src/main.c ****   * in the RCC_OscInitTypeDef structure.
 179:Core/Src/main.c ****   */
 180:Core/Src/main.c ****   RCC_OscInitStruct.OscillatorType = RCC_OSCILLATORTYPE_HSI;
 181:Core/Src/main.c ****   RCC_OscInitStruct.HSIState = RCC_HSI_ON;
 182:Core/Src/main.c ****   RCC_OscInitStruct.HSICalibrationValue = RCC_HSICALIBRATION_DEFAULT;
 183:Core/Src/main.c ****   RCC_OscInitStruct.PLL.PLLState = RCC_PLL_ON;
 184:Core/Src/main.c ****   RCC_OscInitStruct.PLL.PLLSource = RCC_PLLSOURCE_HSI_DIV2;
 185:Core/Src/main.c ****   RCC_OscInitStruct.PLL.PLLMUL = RCC_PLL_MUL16;
 186:Core/Src/main.c ****   if (HAL_RCC_OscConfig(&RCC_OscInitStruct) != HAL_OK)
 187:Core/Src/main.c ****   {
 188:Core/Src/main.c ****     Error_Handler();
 189:Core/Src/main.c ****   }
 190:Core/Src/main.c **** 
 191:Core/Src/main.c ****   /** Initializes the CPU, AHB and APB buses clocks
 192:Core/Src/main.c ****   */
 193:Core/Src/main.c ****   RCC_ClkInitStruct.ClockType = RCC_CLOCKTYPE_HCLK|RCC_CLOCKTYPE_SYSCLK
 194:Core/Src/main.c ****                               |RCC_CLOCKTYPE_PCLK1|RCC_CLOCKTYPE_PCLK2;
 195:Core/Src/main.c ****   RCC_ClkInitStruct.SYSCLKSource = RCC_SYSCLKSOURCE_PLLCLK;
 196:Core/Src/main.c ****   RCC_ClkInitStruct.AHBCLKDivider = RCC_SYSCLK_DIV1;
 197:Core/Src/main.c ****   RCC_ClkInitStruct.APB1CLKDivider = RCC_HCLK_DIV2;
 198:Core/Src/main.c ****   RCC_ClkInitStruct.APB2CLKDivider = RCC_HCLK_DIV1;
 199:Core/Src/main.c **** 
 200:Core/Src/main.c ****   if (HAL_RCC_ClockConfig(&RCC_ClkInitStruct, FLASH_LATENCY_2) != HAL_OK)
 201:Core/Src/main.c ****   {
 202:Core/Src/main.c ****     Error_Handler();
 203:Core/Src/main.c ****   }
 204:Core/Src/main.c ****   PeriphClkInit.PeriphClockSelection = RCC_PERIPHCLK_ADC;
 205:Core/Src/main.c ****   PeriphClkInit.AdcClockSelection = RCC_ADCPCLK2_DIV6;
 206:Core/Src/main.c ****   if (HAL_RCCEx_PeriphCLKConfig(&PeriphClkInit) != HAL_OK)
 207:Core/Src/main.c ****   {
 208:Core/Src/main.c ****     Error_Handler();
 209:Core/Src/main.c ****   }
ARM GAS  /var/folders/8x/_y6g3dfs0698dfd49y4vcg_w0000gn/T//ccpEJ4cE.s 			page 6


 210:Core/Src/main.c **** }
 211:Core/Src/main.c **** 
 212:Core/Src/main.c **** /* USER CODE BEGIN 4 */
 213:Core/Src/main.c **** 
 214:Core/Src/main.c **** static float fast_atan(uint16_t ADC_C, uint16_t ADC_S) {
 215:Core/Src/main.c ****   const float midpoint = (ADC_MAX + ADC_MIN) / 2.0f;
 216:Core/Src/main.c ****   float num = ADC_C - midpoint;
 217:Core/Src/main.c ****   float den = ADC_S - midpoint;
 218:Core/Src/main.c ****   if (den == 0)
 219:Core/Src/main.c ****     return (num >= 0) ? 0 : M_PI;
 220:Core/Src/main.c ****   float r = fabs(num / den);
 221:Core/Src/main.c ****   int index = (int)(r * 1023.0f);
 222:Core/Src/main.c ****   float theta = ATAN_LUT[index];
 223:Core/Src/main.c ****   float next_theta = ATAN_LUT[index + 1];
 224:Core/Src/main.c ****   theta += (r - (index / 1023.0f)) * (next_theta - theta);
 225:Core/Src/main.c ****   if (num > den)
 226:Core/Src/main.c ****     theta = M_PI_2 - theta;
 227:Core/Src/main.c ****   if (num < 0 && den > 0)
 228:Core/Src/main.c ****     return M_PI + theta;
 229:Core/Src/main.c ****   if (den < 0)
 230:Core/Src/main.c ****     return M_PI - theta;
 231:Core/Src/main.c ****   return theta;
 232:Core/Src/main.c **** }
 233:Core/Src/main.c **** 
 234:Core/Src/main.c **** /**
 235:Core/Src/main.c ****  * @brief  This function is used to output the Hall position. For a single pole pair? 
 236:Core/Src/main.c ****  * @param  theta_deg: The angle in degrees.
 237:Core/Src/main.c ****  * @retval None
 238:Core/Src/main.c ****  * @author Alex
 239:Core/Src/main.c ****  */
 240:Core/Src/main.c **** void HallPositionOutput(theta_deg){
  50              		.loc 1 240 35 view -0
  51              		.cfi_startproc
  52              		@ args = 0, pretend = 0, frame = 0
  53              		@ frame_needed = 0, uses_anonymous_args = 0
  54              		.loc 1 240 35 is_stmt 0 view .LVU1
  55 0000 10B5     		push	{r4, lr}
  56              	.LCFI0:
  57              		.cfi_def_cfa_offset 8
  58              		.cfi_offset 4, -8
  59              		.cfi_offset 14, -4
 241:Core/Src/main.c ****   if(theta_deg >= 0 && theta_deg < 60) {
  60              		.loc 1 241 3 is_stmt 1 view .LVU2
  61              		.loc 1 241 5 is_stmt 0 view .LVU3
  62 0002 3B28     		cmp	r0, #59
  63 0004 27D9     		bls	.L10
 242:Core/Src/main.c ****     //HALL A = 1, HALL_B = 0, HALL_C = 1
 243:Core/Src/main.c ****     HAL_GPIO_WritePin(HALL_A_GPIO_Port, HALL_A_Pin, GPIO_PIN_SET);
 244:Core/Src/main.c ****     HAL_GPIO_WritePin(HALL_B_GPIO_Port, HALL_B_Pin, GPIO_PIN_RESET);
 245:Core/Src/main.c ****     HAL_GPIO_WritePin(HALL_C_GPIO_Port, HALL_C_Pin, GPIO_PIN_SET);
 246:Core/Src/main.c **** 
 247:Core/Src/main.c ****     printf("HALL A = 1, HALL B = 0, HALL C = 1\r\n");
 248:Core/Src/main.c ****   } else if (theta_deg >= 60 && theta_deg < 120){
  64              		.loc 1 248 10 is_stmt 1 view .LVU4
  65              		.loc 1 248 30 is_stmt 0 view .LVU5
  66 0006 A0F13C03 		sub	r3, r0, #60
  67              		.loc 1 248 13 view .LVU6
ARM GAS  /var/folders/8x/_y6g3dfs0698dfd49y4vcg_w0000gn/T//ccpEJ4cE.s 			page 7


  68 000a 3B2B     		cmp	r3, #59
  69 000c 37D9     		bls	.L11
 249:Core/Src/main.c ****     //HALL A = 1, HALL_B = 0, HALL_C = 0
 250:Core/Src/main.c ****     HAL_GPIO_WritePin(HALL_A_GPIO_Port, HALL_A_Pin, GPIO_PIN_SET);
 251:Core/Src/main.c ****     HAL_GPIO_WritePin(HALL_B_GPIO_Port, HALL_B_Pin, GPIO_PIN_RESET);
 252:Core/Src/main.c ****     HAL_GPIO_WritePin(HALL_C_GPIO_Port, HALL_C_Pin, GPIO_PIN_RESET);
 253:Core/Src/main.c **** 
 254:Core/Src/main.c ****     printf("HALL A = 1, HALL B = 0, HALL C = 0\r\n");
 255:Core/Src/main.c ****   } else if (theta_deg >= 120 && theta_deg < 180){
  70              		.loc 1 255 10 is_stmt 1 view .LVU7
  71              		.loc 1 255 31 is_stmt 0 view .LVU8
  72 000e A0F17803 		sub	r3, r0, #120
  73              		.loc 1 255 13 view .LVU9
  74 0012 3B2B     		cmp	r3, #59
  75 0014 47D9     		bls	.L12
 256:Core/Src/main.c ****     //HALL A = 1, HALL_B = 1, HALL_C = 0
 257:Core/Src/main.c ****     HAL_GPIO_WritePin(HALL_A_GPIO_Port, HALL_A_Pin, GPIO_PIN_SET);
 258:Core/Src/main.c ****     HAL_GPIO_WritePin(HALL_B_GPIO_Port, HALL_B_Pin, GPIO_PIN_SET);
 259:Core/Src/main.c ****     HAL_GPIO_WritePin(HALL_C_GPIO_Port, HALL_C_Pin, GPIO_PIN_RESET);
 260:Core/Src/main.c **** 
 261:Core/Src/main.c ****     printf("HALL A = 1, HALL B = 1, HALL C = 0\r\n");
 262:Core/Src/main.c ****   } else if (theta_deg >= 180 && theta_deg < 240){
  76              		.loc 1 262 10 is_stmt 1 view .LVU10
  77              		.loc 1 262 31 is_stmt 0 view .LVU11
  78 0016 A0F1B403 		sub	r3, r0, #180
  79              		.loc 1 262 13 view .LVU12
  80 001a 3B2B     		cmp	r3, #59
  81 001c 57D9     		bls	.L13
 263:Core/Src/main.c ****     //HALL A = 0, HALL_B = 1, HALL_C = 0
 264:Core/Src/main.c ****     HAL_GPIO_WritePin(HALL_A_GPIO_Port, HALL_A_Pin, GPIO_PIN_RESET);
 265:Core/Src/main.c ****     HAL_GPIO_WritePin(HALL_B_GPIO_Port, HALL_B_Pin, GPIO_PIN_SET);
 266:Core/Src/main.c ****     HAL_GPIO_WritePin(HALL_C_GPIO_Port, HALL_C_Pin, GPIO_PIN_RESET);
 267:Core/Src/main.c **** 
 268:Core/Src/main.c ****     printf("HALL A = 0, HALL B = 1, HALL C = 0\r\n");
 269:Core/Src/main.c ****   } else if (theta_deg >= 240 && theta_deg < 300){
  82              		.loc 1 269 10 is_stmt 1 view .LVU13
  83              		.loc 1 269 31 is_stmt 0 view .LVU14
  84 001e A0F1F003 		sub	r3, r0, #240
  85              		.loc 1 269 13 view .LVU15
  86 0022 3B2B     		cmp	r3, #59
  87 0024 67D9     		bls	.L14
 270:Core/Src/main.c ****     //HALL A = 0, HALL_B = 1, HALL_C = 1
 271:Core/Src/main.c ****     HAL_GPIO_WritePin(HALL_A_GPIO_Port, HALL_A_Pin, GPIO_PIN_RESET);
 272:Core/Src/main.c ****     HAL_GPIO_WritePin(HALL_B_GPIO_Port, HALL_B_Pin, GPIO_PIN_SET);
 273:Core/Src/main.c ****     HAL_GPIO_WritePin(HALL_C_GPIO_Port, HALL_C_Pin, GPIO_PIN_SET);
 274:Core/Src/main.c **** 
 275:Core/Src/main.c ****     printf("HALL A = 0, HALL B = 1, HALL C = 1\r\n");
 276:Core/Src/main.c ****   } else if (theta_deg >= 300 && theta_deg < 360){
  88              		.loc 1 276 10 is_stmt 1 view .LVU16
  89              		.loc 1 276 31 is_stmt 0 view .LVU17
  90 0026 A0F59673 		sub	r3, r0, #300
  91              		.loc 1 276 13 view .LVU18
  92 002a 3B2B     		cmp	r3, #59
  93 002c 77D8     		bhi	.L8
 277:Core/Src/main.c ****     //HALL A = 0, HALL_B = 0, HALL_C = 1
 278:Core/Src/main.c ****     HAL_GPIO_WritePin(HALL_A_GPIO_Port, HALL_A_Pin, GPIO_PIN_RESET);
  94              		.loc 1 278 5 is_stmt 1 view .LVU19
ARM GAS  /var/folders/8x/_y6g3dfs0698dfd49y4vcg_w0000gn/T//ccpEJ4cE.s 			page 8


  95 002e 3E4C     		ldr	r4, .L15
  96 0030 0022     		movs	r2, #0
  97 0032 0821     		movs	r1, #8
  98 0034 2046     		mov	r0, r4
  99              	.LVL1:
 100              		.loc 1 278 5 is_stmt 0 view .LVU20
 101 0036 FFF7FEFF 		bl	HAL_GPIO_WritePin
 102              	.LVL2:
 279:Core/Src/main.c ****     HAL_GPIO_WritePin(HALL_B_GPIO_Port, HALL_B_Pin, GPIO_PIN_RESET);
 103              		.loc 1 279 5 is_stmt 1 view .LVU21
 104 003a 0022     		movs	r2, #0
 105 003c 2021     		movs	r1, #32
 106 003e 2046     		mov	r0, r4
 107 0040 FFF7FEFF 		bl	HAL_GPIO_WritePin
 108              	.LVL3:
 280:Core/Src/main.c ****     HAL_GPIO_WritePin(HALL_C_GPIO_Port, HALL_C_Pin, GPIO_PIN_SET);
 109              		.loc 1 280 5 view .LVU22
 110 0044 0122     		movs	r2, #1
 111 0046 8021     		movs	r1, #128
 112 0048 2046     		mov	r0, r4
 113 004a FFF7FEFF 		bl	HAL_GPIO_WritePin
 114              	.LVL4:
 281:Core/Src/main.c **** 
 282:Core/Src/main.c ****     printf("HALL A = 0, HALL B = 0, HALL C = 1\r\n");
 115              		.loc 1 282 5 view .LVU23
 116 004e 3748     		ldr	r0, .L15+4
 117 0050 FFF7FEFF 		bl	puts
 118              	.LVL5:
 119 0054 12E0     		b	.L1
 120              	.LVL6:
 121              	.L10:
 243:Core/Src/main.c ****     HAL_GPIO_WritePin(HALL_B_GPIO_Port, HALL_B_Pin, GPIO_PIN_RESET);
 122              		.loc 1 243 5 view .LVU24
 123 0056 344C     		ldr	r4, .L15
 124 0058 0122     		movs	r2, #1
 125 005a 0821     		movs	r1, #8
 126 005c 2046     		mov	r0, r4
 127              	.LVL7:
 243:Core/Src/main.c ****     HAL_GPIO_WritePin(HALL_B_GPIO_Port, HALL_B_Pin, GPIO_PIN_RESET);
 128              		.loc 1 243 5 is_stmt 0 view .LVU25
 129 005e FFF7FEFF 		bl	HAL_GPIO_WritePin
 130              	.LVL8:
 244:Core/Src/main.c ****     HAL_GPIO_WritePin(HALL_C_GPIO_Port, HALL_C_Pin, GPIO_PIN_SET);
 131              		.loc 1 244 5 is_stmt 1 view .LVU26
 132 0062 0022     		movs	r2, #0
 133 0064 2021     		movs	r1, #32
 134 0066 2046     		mov	r0, r4
 135 0068 FFF7FEFF 		bl	HAL_GPIO_WritePin
 136              	.LVL9:
 245:Core/Src/main.c **** 
 137              		.loc 1 245 5 view .LVU27
 138 006c 0122     		movs	r2, #1
 139 006e 8021     		movs	r1, #128
 140 0070 2046     		mov	r0, r4
 141 0072 FFF7FEFF 		bl	HAL_GPIO_WritePin
 142              	.LVL10:
 247:Core/Src/main.c ****   } else if (theta_deg >= 60 && theta_deg < 120){
ARM GAS  /var/folders/8x/_y6g3dfs0698dfd49y4vcg_w0000gn/T//ccpEJ4cE.s 			page 9


 143              		.loc 1 247 5 view .LVU28
 144 0076 2E48     		ldr	r0, .L15+8
 145 0078 FFF7FEFF 		bl	puts
 146              	.LVL11:
 147              	.L1:
 283:Core/Src/main.c ****   } else {
 284:Core/Src/main.c ****     // Invalid angle
 285:Core/Src/main.c ****     printf("Invalid angle: %d\r\n", theta_deg);
 286:Core/Src/main.c ****   }
 287:Core/Src/main.c **** 
 288:Core/Src/main.c **** }
 148              		.loc 1 288 1 is_stmt 0 view .LVU29
 149 007c 10BD     		pop	{r4, pc}
 150              	.LVL12:
 151              	.L11:
 250:Core/Src/main.c ****     HAL_GPIO_WritePin(HALL_B_GPIO_Port, HALL_B_Pin, GPIO_PIN_RESET);
 152              		.loc 1 250 5 is_stmt 1 view .LVU30
 153 007e 2A4C     		ldr	r4, .L15
 154 0080 0122     		movs	r2, #1
 155 0082 0821     		movs	r1, #8
 156 0084 2046     		mov	r0, r4
 157              	.LVL13:
 250:Core/Src/main.c ****     HAL_GPIO_WritePin(HALL_B_GPIO_Port, HALL_B_Pin, GPIO_PIN_RESET);
 158              		.loc 1 250 5 is_stmt 0 view .LVU31
 159 0086 FFF7FEFF 		bl	HAL_GPIO_WritePin
 160              	.LVL14:
 251:Core/Src/main.c ****     HAL_GPIO_WritePin(HALL_C_GPIO_Port, HALL_C_Pin, GPIO_PIN_RESET);
 161              		.loc 1 251 5 is_stmt 1 view .LVU32
 162 008a 0022     		movs	r2, #0
 163 008c 2021     		movs	r1, #32
 164 008e 2046     		mov	r0, r4
 165 0090 FFF7FEFF 		bl	HAL_GPIO_WritePin
 166              	.LVL15:
 252:Core/Src/main.c **** 
 167              		.loc 1 252 5 view .LVU33
 168 0094 0022     		movs	r2, #0
 169 0096 8021     		movs	r1, #128
 170 0098 2046     		mov	r0, r4
 171 009a FFF7FEFF 		bl	HAL_GPIO_WritePin
 172              	.LVL16:
 254:Core/Src/main.c ****   } else if (theta_deg >= 120 && theta_deg < 180){
 173              		.loc 1 254 5 view .LVU34
 174 009e 2548     		ldr	r0, .L15+12
 175 00a0 FFF7FEFF 		bl	puts
 176              	.LVL17:
 177 00a4 EAE7     		b	.L1
 178              	.LVL18:
 179              	.L12:
 257:Core/Src/main.c ****     HAL_GPIO_WritePin(HALL_B_GPIO_Port, HALL_B_Pin, GPIO_PIN_SET);
 180              		.loc 1 257 5 view .LVU35
 181 00a6 204C     		ldr	r4, .L15
 182 00a8 0122     		movs	r2, #1
 183 00aa 0821     		movs	r1, #8
 184 00ac 2046     		mov	r0, r4
 185              	.LVL19:
 257:Core/Src/main.c ****     HAL_GPIO_WritePin(HALL_B_GPIO_Port, HALL_B_Pin, GPIO_PIN_SET);
 186              		.loc 1 257 5 is_stmt 0 view .LVU36
ARM GAS  /var/folders/8x/_y6g3dfs0698dfd49y4vcg_w0000gn/T//ccpEJ4cE.s 			page 10


 187 00ae FFF7FEFF 		bl	HAL_GPIO_WritePin
 188              	.LVL20:
 258:Core/Src/main.c ****     HAL_GPIO_WritePin(HALL_C_GPIO_Port, HALL_C_Pin, GPIO_PIN_RESET);
 189              		.loc 1 258 5 is_stmt 1 view .LVU37
 190 00b2 0122     		movs	r2, #1
 191 00b4 2021     		movs	r1, #32
 192 00b6 2046     		mov	r0, r4
 193 00b8 FFF7FEFF 		bl	HAL_GPIO_WritePin
 194              	.LVL21:
 259:Core/Src/main.c **** 
 195              		.loc 1 259 5 view .LVU38
 196 00bc 0022     		movs	r2, #0
 197 00be 8021     		movs	r1, #128
 198 00c0 2046     		mov	r0, r4
 199 00c2 FFF7FEFF 		bl	HAL_GPIO_WritePin
 200              	.LVL22:
 261:Core/Src/main.c ****   } else if (theta_deg >= 180 && theta_deg < 240){
 201              		.loc 1 261 5 view .LVU39
 202 00c6 1C48     		ldr	r0, .L15+16
 203 00c8 FFF7FEFF 		bl	puts
 204              	.LVL23:
 205 00cc D6E7     		b	.L1
 206              	.LVL24:
 207              	.L13:
 264:Core/Src/main.c ****     HAL_GPIO_WritePin(HALL_B_GPIO_Port, HALL_B_Pin, GPIO_PIN_SET);
 208              		.loc 1 264 5 view .LVU40
 209 00ce 164C     		ldr	r4, .L15
 210 00d0 0022     		movs	r2, #0
 211 00d2 0821     		movs	r1, #8
 212 00d4 2046     		mov	r0, r4
 213              	.LVL25:
 264:Core/Src/main.c ****     HAL_GPIO_WritePin(HALL_B_GPIO_Port, HALL_B_Pin, GPIO_PIN_SET);
 214              		.loc 1 264 5 is_stmt 0 view .LVU41
 215 00d6 FFF7FEFF 		bl	HAL_GPIO_WritePin
 216              	.LVL26:
 265:Core/Src/main.c ****     HAL_GPIO_WritePin(HALL_C_GPIO_Port, HALL_C_Pin, GPIO_PIN_RESET);
 217              		.loc 1 265 5 is_stmt 1 view .LVU42
 218 00da 0122     		movs	r2, #1
 219 00dc 2021     		movs	r1, #32
 220 00de 2046     		mov	r0, r4
 221 00e0 FFF7FEFF 		bl	HAL_GPIO_WritePin
 222              	.LVL27:
 266:Core/Src/main.c **** 
 223              		.loc 1 266 5 view .LVU43
 224 00e4 0022     		movs	r2, #0
 225 00e6 8021     		movs	r1, #128
 226 00e8 2046     		mov	r0, r4
 227 00ea FFF7FEFF 		bl	HAL_GPIO_WritePin
 228              	.LVL28:
 268:Core/Src/main.c ****   } else if (theta_deg >= 240 && theta_deg < 300){
 229              		.loc 1 268 5 view .LVU44
 230 00ee 1348     		ldr	r0, .L15+20
 231 00f0 FFF7FEFF 		bl	puts
 232              	.LVL29:
 233 00f4 C2E7     		b	.L1
 234              	.LVL30:
 235              	.L14:
ARM GAS  /var/folders/8x/_y6g3dfs0698dfd49y4vcg_w0000gn/T//ccpEJ4cE.s 			page 11


 271:Core/Src/main.c ****     HAL_GPIO_WritePin(HALL_B_GPIO_Port, HALL_B_Pin, GPIO_PIN_SET);
 236              		.loc 1 271 5 view .LVU45
 237 00f6 0C4C     		ldr	r4, .L15
 238 00f8 0022     		movs	r2, #0
 239 00fa 0821     		movs	r1, #8
 240 00fc 2046     		mov	r0, r4
 241              	.LVL31:
 271:Core/Src/main.c ****     HAL_GPIO_WritePin(HALL_B_GPIO_Port, HALL_B_Pin, GPIO_PIN_SET);
 242              		.loc 1 271 5 is_stmt 0 view .LVU46
 243 00fe FFF7FEFF 		bl	HAL_GPIO_WritePin
 244              	.LVL32:
 272:Core/Src/main.c ****     HAL_GPIO_WritePin(HALL_C_GPIO_Port, HALL_C_Pin, GPIO_PIN_SET);
 245              		.loc 1 272 5 is_stmt 1 view .LVU47
 246 0102 0122     		movs	r2, #1
 247 0104 2021     		movs	r1, #32
 248 0106 2046     		mov	r0, r4
 249 0108 FFF7FEFF 		bl	HAL_GPIO_WritePin
 250              	.LVL33:
 273:Core/Src/main.c **** 
 251              		.loc 1 273 5 view .LVU48
 252 010c 0122     		movs	r2, #1
 253 010e 8021     		movs	r1, #128
 254 0110 2046     		mov	r0, r4
 255 0112 FFF7FEFF 		bl	HAL_GPIO_WritePin
 256              	.LVL34:
 275:Core/Src/main.c ****   } else if (theta_deg >= 300 && theta_deg < 360){
 257              		.loc 1 275 5 view .LVU49
 258 0116 0A48     		ldr	r0, .L15+24
 259 0118 FFF7FEFF 		bl	puts
 260              	.LVL35:
 261 011c AEE7     		b	.L1
 262              	.LVL36:
 263              	.L8:
 285:Core/Src/main.c ****   }
 264              		.loc 1 285 5 view .LVU50
 265 011e 0146     		mov	r1, r0
 266 0120 0848     		ldr	r0, .L15+28
 267              	.LVL37:
 285:Core/Src/main.c ****   }
 268              		.loc 1 285 5 is_stmt 0 view .LVU51
 269 0122 FFF7FEFF 		bl	printf
 270              	.LVL38:
 271              		.loc 1 288 1 view .LVU52
 272 0126 A9E7     		b	.L1
 273              	.L16:
 274              		.align	2
 275              	.L15:
 276 0128 000C0140 		.word	1073810432
 277 012c B4000000 		.word	.LC5
 278 0130 00000000 		.word	.LC0
 279 0134 24000000 		.word	.LC1
 280 0138 48000000 		.word	.LC2
 281 013c 6C000000 		.word	.LC3
 282 0140 90000000 		.word	.LC4
 283 0144 D8000000 		.word	.LC6
 284              		.cfi_endproc
 285              	.LFE71:
ARM GAS  /var/folders/8x/_y6g3dfs0698dfd49y4vcg_w0000gn/T//ccpEJ4cE.s 			page 12


 287              		.section	.text.HallPositionOutput_10Pair,"ax",%progbits
 288              		.align	1
 289              		.global	HallPositionOutput_10Pair
 290              		.syntax unified
 291              		.thumb
 292              		.thumb_func
 294              	HallPositionOutput_10Pair:
 295              	.LVL39:
 296              	.LFB72:
 289:Core/Src/main.c **** 
 290:Core/Src/main.c **** /**
 291:Core/Src/main.c ****  * @brief  This function is used to output the Hall position for a 10-pair motor. 
 292:Core/Src/main.c ****  * @param  theta_deg: The angle in degrees.
 293:Core/Src/main.c ****  * @retval None
 294:Core/Src/main.c ****  * @author Alex
 295:Core/Src/main.c ****  */
 296:Core/Src/main.c **** void HallPositionOutput_10Pair(theta_deg){
 297              		.loc 1 296 42 is_stmt 1 view -0
 298              		.cfi_startproc
 299              		@ args = 0, pretend = 0, frame = 0
 300              		@ frame_needed = 0, uses_anonymous_args = 0
 301              		.loc 1 296 42 is_stmt 0 view .LVU54
 302 0000 10B5     		push	{r4, lr}
 303              	.LCFI1:
 304              		.cfi_def_cfa_offset 8
 305              		.cfi_offset 4, -8
 306              		.cfi_offset 14, -4
 297:Core/Src/main.c ****   // Normalize the angle to a single electrical cycle (0-36 degrees)
 298:Core/Src/main.c ****   int theta_elec = theta_deg % 36;
 307              		.loc 1 298 3 is_stmt 1 view .LVU55
 308              		.loc 1 298 7 is_stmt 0 view .LVU56
 309 0002 4F4A     		ldr	r2, .L28
 310 0004 82FB0032 		smull	r3, r2, r2, r0
 311 0008 C317     		asrs	r3, r0, #31
 312 000a C3EBE203 		rsb	r3, r3, r2, asr #3
 313 000e 03EBC303 		add	r3, r3, r3, lsl #3
 314 0012 A0EB8303 		sub	r3, r0, r3, lsl #2
 315              	.LVL40:
 299:Core/Src/main.c **** 
 300:Core/Src/main.c ****   if (theta_elec >= 0 && theta_elec < 6) {
 316              		.loc 1 300 3 is_stmt 1 view .LVU57
 317 0016 232B     		cmp	r3, #35
 318 0018 00F28C80 		bhi	.L18
 319 001c DFE803F0 		tbb	[pc, r3]
 320              	.L20:
 321 0020 12       		.byte	(.L25-.L20)/2
 322 0021 12       		.byte	(.L25-.L20)/2
 323 0022 12       		.byte	(.L25-.L20)/2
 324 0023 12       		.byte	(.L25-.L20)/2
 325 0024 12       		.byte	(.L25-.L20)/2
 326 0025 12       		.byte	(.L25-.L20)/2
 327 0026 26       		.byte	(.L24-.L20)/2
 328 0027 26       		.byte	(.L24-.L20)/2
 329 0028 26       		.byte	(.L24-.L20)/2
 330 0029 26       		.byte	(.L24-.L20)/2
 331 002a 26       		.byte	(.L24-.L20)/2
 332 002b 26       		.byte	(.L24-.L20)/2
ARM GAS  /var/folders/8x/_y6g3dfs0698dfd49y4vcg_w0000gn/T//ccpEJ4cE.s 			page 13


 333 002c 3A       		.byte	(.L23-.L20)/2
 334 002d 3A       		.byte	(.L23-.L20)/2
 335 002e 3A       		.byte	(.L23-.L20)/2
 336 002f 3A       		.byte	(.L23-.L20)/2
 337 0030 3A       		.byte	(.L23-.L20)/2
 338 0031 3A       		.byte	(.L23-.L20)/2
 339 0032 4E       		.byte	(.L22-.L20)/2
 340 0033 4E       		.byte	(.L22-.L20)/2
 341 0034 4E       		.byte	(.L22-.L20)/2
 342 0035 4E       		.byte	(.L22-.L20)/2
 343 0036 4E       		.byte	(.L22-.L20)/2
 344 0037 4E       		.byte	(.L22-.L20)/2
 345 0038 62       		.byte	(.L21-.L20)/2
 346 0039 62       		.byte	(.L21-.L20)/2
 347 003a 62       		.byte	(.L21-.L20)/2
 348 003b 62       		.byte	(.L21-.L20)/2
 349 003c 62       		.byte	(.L21-.L20)/2
 350 003d 62       		.byte	(.L21-.L20)/2
 351 003e 76       		.byte	(.L19-.L20)/2
 352 003f 76       		.byte	(.L19-.L20)/2
 353 0040 76       		.byte	(.L19-.L20)/2
 354 0041 76       		.byte	(.L19-.L20)/2
 355 0042 76       		.byte	(.L19-.L20)/2
 356 0043 76       		.byte	(.L19-.L20)/2
 357              		.p2align 1
 358              	.L25:
 301:Core/Src/main.c ****     HAL_GPIO_WritePin(HALL_A_GPIO_Port, HALL_A_Pin, GPIO_PIN_SET);
 359              		.loc 1 301 5 view .LVU58
 360 0044 3F4C     		ldr	r4, .L28+4
 361 0046 0122     		movs	r2, #1
 362 0048 0821     		movs	r1, #8
 363 004a 2046     		mov	r0, r4
 364              	.LVL41:
 365              		.loc 1 301 5 is_stmt 0 view .LVU59
 366 004c FFF7FEFF 		bl	HAL_GPIO_WritePin
 367              	.LVL42:
 302:Core/Src/main.c ****     HAL_GPIO_WritePin(HALL_B_GPIO_Port, HALL_B_Pin, GPIO_PIN_RESET);
 368              		.loc 1 302 5 is_stmt 1 view .LVU60
 369 0050 0022     		movs	r2, #0
 370 0052 2021     		movs	r1, #32
 371 0054 2046     		mov	r0, r4
 372 0056 FFF7FEFF 		bl	HAL_GPIO_WritePin
 373              	.LVL43:
 303:Core/Src/main.c ****     HAL_GPIO_WritePin(HALL_C_GPIO_Port, HALL_C_Pin, GPIO_PIN_SET);
 374              		.loc 1 303 5 view .LVU61
 375 005a 0122     		movs	r2, #1
 376 005c 8021     		movs	r1, #128
 377 005e 2046     		mov	r0, r4
 378 0060 FFF7FEFF 		bl	HAL_GPIO_WritePin
 379              	.LVL44:
 304:Core/Src/main.c ****     printf("HALL A = 1, HALL B = 0, HALL C = 1\r\n");
 380              		.loc 1 304 5 view .LVU62
 381 0064 3848     		ldr	r0, .L28+8
 382 0066 FFF7FEFF 		bl	puts
 383              	.LVL45:
 384              	.L17:
 305:Core/Src/main.c ****   } else if (theta_elec >= 6 && theta_elec < 12) {
ARM GAS  /var/folders/8x/_y6g3dfs0698dfd49y4vcg_w0000gn/T//ccpEJ4cE.s 			page 14


 306:Core/Src/main.c ****     HAL_GPIO_WritePin(HALL_A_GPIO_Port, HALL_A_Pin, GPIO_PIN_SET);
 307:Core/Src/main.c ****     HAL_GPIO_WritePin(HALL_B_GPIO_Port, HALL_B_Pin, GPIO_PIN_RESET);
 308:Core/Src/main.c ****     HAL_GPIO_WritePin(HALL_C_GPIO_Port, HALL_C_Pin, GPIO_PIN_RESET);
 309:Core/Src/main.c ****     printf("HALL A = 1, HALL B = 0, HALL C = 0\r\n");
 310:Core/Src/main.c ****   } else if (theta_elec >= 12 && theta_elec < 18) {
 311:Core/Src/main.c ****     HAL_GPIO_WritePin(HALL_A_GPIO_Port, HALL_A_Pin, GPIO_PIN_SET);
 312:Core/Src/main.c ****     HAL_GPIO_WritePin(HALL_B_GPIO_Port, HALL_B_Pin, GPIO_PIN_SET);
 313:Core/Src/main.c ****     HAL_GPIO_WritePin(HALL_C_GPIO_Port, HALL_C_Pin, GPIO_PIN_RESET);
 314:Core/Src/main.c ****     printf("HALL A = 1, HALL B = 1, HALL C = 0\r\n");
 315:Core/Src/main.c ****   } else if (theta_elec >= 18 && theta_elec < 24) {
 316:Core/Src/main.c ****     HAL_GPIO_WritePin(HALL_A_GPIO_Port, HALL_A_Pin, GPIO_PIN_RESET);
 317:Core/Src/main.c ****     HAL_GPIO_WritePin(HALL_B_GPIO_Port, HALL_B_Pin, GPIO_PIN_SET);
 318:Core/Src/main.c ****     HAL_GPIO_WritePin(HALL_C_GPIO_Port, HALL_C_Pin, GPIO_PIN_RESET);
 319:Core/Src/main.c ****     printf("HALL A = 0, HALL B = 1, HALL C = 0\r\n");
 320:Core/Src/main.c ****   } else if (theta_elec >= 24 && theta_elec < 30) {
 321:Core/Src/main.c ****     HAL_GPIO_WritePin(HALL_A_GPIO_Port, HALL_A_Pin, GPIO_PIN_RESET);
 322:Core/Src/main.c ****     HAL_GPIO_WritePin(HALL_B_GPIO_Port, HALL_B_Pin, GPIO_PIN_SET);
 323:Core/Src/main.c ****     HAL_GPIO_WritePin(HALL_C_GPIO_Port, HALL_C_Pin, GPIO_PIN_SET);
 324:Core/Src/main.c ****     printf("HALL A = 0, HALL B = 1, HALL C = 1\r\n");
 325:Core/Src/main.c ****   } else if (theta_elec >= 30 && theta_elec < 36) {
 326:Core/Src/main.c ****     HAL_GPIO_WritePin(HALL_A_GPIO_Port, HALL_A_Pin, GPIO_PIN_RESET);
 327:Core/Src/main.c ****     HAL_GPIO_WritePin(HALL_B_GPIO_Port, HALL_B_Pin, GPIO_PIN_RESET);
 328:Core/Src/main.c ****     HAL_GPIO_WritePin(HALL_C_GPIO_Port, HALL_C_Pin, GPIO_PIN_SET);
 329:Core/Src/main.c ****     printf("HALL A = 0, HALL B = 0, HALL C = 1\r\n");
 330:Core/Src/main.c ****   } else {
 331:Core/Src/main.c ****     printf("Invalid angle: %d\r\n", theta_deg);
 332:Core/Src/main.c ****   }
 333:Core/Src/main.c **** 
 334:Core/Src/main.c **** }
 385              		.loc 1 334 1 is_stmt 0 view .LVU63
 386 006a 10BD     		pop	{r4, pc}
 387              	.LVL46:
 388              	.L24:
 306:Core/Src/main.c ****     HAL_GPIO_WritePin(HALL_B_GPIO_Port, HALL_B_Pin, GPIO_PIN_RESET);
 389              		.loc 1 306 5 is_stmt 1 view .LVU64
 390 006c 354C     		ldr	r4, .L28+4
 391 006e 0122     		movs	r2, #1
 392 0070 0821     		movs	r1, #8
 393 0072 2046     		mov	r0, r4
 394              	.LVL47:
 306:Core/Src/main.c ****     HAL_GPIO_WritePin(HALL_B_GPIO_Port, HALL_B_Pin, GPIO_PIN_RESET);
 395              		.loc 1 306 5 is_stmt 0 view .LVU65
 396 0074 FFF7FEFF 		bl	HAL_GPIO_WritePin
 397              	.LVL48:
 307:Core/Src/main.c ****     HAL_GPIO_WritePin(HALL_C_GPIO_Port, HALL_C_Pin, GPIO_PIN_RESET);
 398              		.loc 1 307 5 is_stmt 1 view .LVU66
 399 0078 0022     		movs	r2, #0
 400 007a 2021     		movs	r1, #32
 401 007c 2046     		mov	r0, r4
 402 007e FFF7FEFF 		bl	HAL_GPIO_WritePin
 403              	.LVL49:
 308:Core/Src/main.c ****     printf("HALL A = 1, HALL B = 0, HALL C = 0\r\n");
 404              		.loc 1 308 5 view .LVU67
 405 0082 0022     		movs	r2, #0
 406 0084 8021     		movs	r1, #128
 407 0086 2046     		mov	r0, r4
 408 0088 FFF7FEFF 		bl	HAL_GPIO_WritePin
ARM GAS  /var/folders/8x/_y6g3dfs0698dfd49y4vcg_w0000gn/T//ccpEJ4cE.s 			page 15


 409              	.LVL50:
 309:Core/Src/main.c ****   } else if (theta_elec >= 12 && theta_elec < 18) {
 410              		.loc 1 309 5 view .LVU68
 411 008c 2F48     		ldr	r0, .L28+12
 412 008e FFF7FEFF 		bl	puts
 413              	.LVL51:
 414 0092 EAE7     		b	.L17
 415              	.LVL52:
 416              	.L23:
 311:Core/Src/main.c ****     HAL_GPIO_WritePin(HALL_B_GPIO_Port, HALL_B_Pin, GPIO_PIN_SET);
 417              		.loc 1 311 5 view .LVU69
 418 0094 2B4C     		ldr	r4, .L28+4
 419 0096 0122     		movs	r2, #1
 420 0098 0821     		movs	r1, #8
 421 009a 2046     		mov	r0, r4
 422              	.LVL53:
 311:Core/Src/main.c ****     HAL_GPIO_WritePin(HALL_B_GPIO_Port, HALL_B_Pin, GPIO_PIN_SET);
 423              		.loc 1 311 5 is_stmt 0 view .LVU70
 424 009c FFF7FEFF 		bl	HAL_GPIO_WritePin
 425              	.LVL54:
 312:Core/Src/main.c ****     HAL_GPIO_WritePin(HALL_C_GPIO_Port, HALL_C_Pin, GPIO_PIN_RESET);
 426              		.loc 1 312 5 is_stmt 1 view .LVU71
 427 00a0 0122     		movs	r2, #1
 428 00a2 2021     		movs	r1, #32
 429 00a4 2046     		mov	r0, r4
 430 00a6 FFF7FEFF 		bl	HAL_GPIO_WritePin
 431              	.LVL55:
 313:Core/Src/main.c ****     printf("HALL A = 1, HALL B = 1, HALL C = 0\r\n");
 432              		.loc 1 313 5 view .LVU72
 433 00aa 0022     		movs	r2, #0
 434 00ac 8021     		movs	r1, #128
 435 00ae 2046     		mov	r0, r4
 436 00b0 FFF7FEFF 		bl	HAL_GPIO_WritePin
 437              	.LVL56:
 314:Core/Src/main.c ****   } else if (theta_elec >= 18 && theta_elec < 24) {
 438              		.loc 1 314 5 view .LVU73
 439 00b4 2648     		ldr	r0, .L28+16
 440 00b6 FFF7FEFF 		bl	puts
 441              	.LVL57:
 442 00ba D6E7     		b	.L17
 443              	.LVL58:
 444              	.L22:
 316:Core/Src/main.c ****     HAL_GPIO_WritePin(HALL_B_GPIO_Port, HALL_B_Pin, GPIO_PIN_SET);
 445              		.loc 1 316 5 view .LVU74
 446 00bc 214C     		ldr	r4, .L28+4
 447 00be 0022     		movs	r2, #0
 448 00c0 0821     		movs	r1, #8
 449 00c2 2046     		mov	r0, r4
 450              	.LVL59:
 316:Core/Src/main.c ****     HAL_GPIO_WritePin(HALL_B_GPIO_Port, HALL_B_Pin, GPIO_PIN_SET);
 451              		.loc 1 316 5 is_stmt 0 view .LVU75
 452 00c4 FFF7FEFF 		bl	HAL_GPIO_WritePin
 453              	.LVL60:
 317:Core/Src/main.c ****     HAL_GPIO_WritePin(HALL_C_GPIO_Port, HALL_C_Pin, GPIO_PIN_RESET);
 454              		.loc 1 317 5 is_stmt 1 view .LVU76
 455 00c8 0122     		movs	r2, #1
 456 00ca 2021     		movs	r1, #32
ARM GAS  /var/folders/8x/_y6g3dfs0698dfd49y4vcg_w0000gn/T//ccpEJ4cE.s 			page 16


 457 00cc 2046     		mov	r0, r4
 458 00ce FFF7FEFF 		bl	HAL_GPIO_WritePin
 459              	.LVL61:
 318:Core/Src/main.c ****     printf("HALL A = 0, HALL B = 1, HALL C = 0\r\n");
 460              		.loc 1 318 5 view .LVU77
 461 00d2 0022     		movs	r2, #0
 462 00d4 8021     		movs	r1, #128
 463 00d6 2046     		mov	r0, r4
 464 00d8 FFF7FEFF 		bl	HAL_GPIO_WritePin
 465              	.LVL62:
 319:Core/Src/main.c ****   } else if (theta_elec >= 24 && theta_elec < 30) {
 466              		.loc 1 319 5 view .LVU78
 467 00dc 1D48     		ldr	r0, .L28+20
 468 00de FFF7FEFF 		bl	puts
 469              	.LVL63:
 470 00e2 C2E7     		b	.L17
 471              	.LVL64:
 472              	.L21:
 321:Core/Src/main.c ****     HAL_GPIO_WritePin(HALL_B_GPIO_Port, HALL_B_Pin, GPIO_PIN_SET);
 473              		.loc 1 321 5 view .LVU79
 474 00e4 174C     		ldr	r4, .L28+4
 475 00e6 0022     		movs	r2, #0
 476 00e8 0821     		movs	r1, #8
 477 00ea 2046     		mov	r0, r4
 478              	.LVL65:
 321:Core/Src/main.c ****     HAL_GPIO_WritePin(HALL_B_GPIO_Port, HALL_B_Pin, GPIO_PIN_SET);
 479              		.loc 1 321 5 is_stmt 0 view .LVU80
 480 00ec FFF7FEFF 		bl	HAL_GPIO_WritePin
 481              	.LVL66:
 322:Core/Src/main.c ****     HAL_GPIO_WritePin(HALL_C_GPIO_Port, HALL_C_Pin, GPIO_PIN_SET);
 482              		.loc 1 322 5 is_stmt 1 view .LVU81
 483 00f0 0122     		movs	r2, #1
 484 00f2 2021     		movs	r1, #32
 485 00f4 2046     		mov	r0, r4
 486 00f6 FFF7FEFF 		bl	HAL_GPIO_WritePin
 487              	.LVL67:
 323:Core/Src/main.c ****     printf("HALL A = 0, HALL B = 1, HALL C = 1\r\n");
 488              		.loc 1 323 5 view .LVU82
 489 00fa 0122     		movs	r2, #1
 490 00fc 8021     		movs	r1, #128
 491 00fe 2046     		mov	r0, r4
 492 0100 FFF7FEFF 		bl	HAL_GPIO_WritePin
 493              	.LVL68:
 324:Core/Src/main.c ****   } else if (theta_elec >= 30 && theta_elec < 36) {
 494              		.loc 1 324 5 view .LVU83
 495 0104 1448     		ldr	r0, .L28+24
 496 0106 FFF7FEFF 		bl	puts
 497              	.LVL69:
 498 010a AEE7     		b	.L17
 499              	.LVL70:
 500              	.L19:
 326:Core/Src/main.c ****     HAL_GPIO_WritePin(HALL_B_GPIO_Port, HALL_B_Pin, GPIO_PIN_RESET);
 501              		.loc 1 326 5 view .LVU84
 502 010c 0D4C     		ldr	r4, .L28+4
 503 010e 0022     		movs	r2, #0
 504 0110 0821     		movs	r1, #8
 505 0112 2046     		mov	r0, r4
ARM GAS  /var/folders/8x/_y6g3dfs0698dfd49y4vcg_w0000gn/T//ccpEJ4cE.s 			page 17


 506              	.LVL71:
 326:Core/Src/main.c ****     HAL_GPIO_WritePin(HALL_B_GPIO_Port, HALL_B_Pin, GPIO_PIN_RESET);
 507              		.loc 1 326 5 is_stmt 0 view .LVU85
 508 0114 FFF7FEFF 		bl	HAL_GPIO_WritePin
 509              	.LVL72:
 327:Core/Src/main.c ****     HAL_GPIO_WritePin(HALL_C_GPIO_Port, HALL_C_Pin, GPIO_PIN_SET);
 510              		.loc 1 327 5 is_stmt 1 view .LVU86
 511 0118 0022     		movs	r2, #0
 512 011a 2021     		movs	r1, #32
 513 011c 2046     		mov	r0, r4
 514 011e FFF7FEFF 		bl	HAL_GPIO_WritePin
 515              	.LVL73:
 328:Core/Src/main.c ****     printf("HALL A = 0, HALL B = 0, HALL C = 1\r\n");
 516              		.loc 1 328 5 view .LVU87
 517 0122 0122     		movs	r2, #1
 518 0124 8021     		movs	r1, #128
 519 0126 2046     		mov	r0, r4
 520 0128 FFF7FEFF 		bl	HAL_GPIO_WritePin
 521              	.LVL74:
 329:Core/Src/main.c ****   } else {
 522              		.loc 1 329 5 view .LVU88
 523 012c 0B48     		ldr	r0, .L28+28
 524 012e FFF7FEFF 		bl	puts
 525              	.LVL75:
 526 0132 9AE7     		b	.L17
 527              	.LVL76:
 528              	.L18:
 331:Core/Src/main.c ****   }
 529              		.loc 1 331 5 view .LVU89
 530 0134 0146     		mov	r1, r0
 531 0136 0A48     		ldr	r0, .L28+32
 532              	.LVL77:
 331:Core/Src/main.c ****   }
 533              		.loc 1 331 5 is_stmt 0 view .LVU90
 534 0138 FFF7FEFF 		bl	printf
 535              	.LVL78:
 536              		.loc 1 334 1 view .LVU91
 537 013c 95E7     		b	.L17
 538              	.L29:
 539 013e 00BF     		.align	2
 540              	.L28:
 541 0140 398EE338 		.word	954437177
 542 0144 000C0140 		.word	1073810432
 543 0148 00000000 		.word	.LC0
 544 014c 24000000 		.word	.LC1
 545 0150 48000000 		.word	.LC2
 546 0154 6C000000 		.word	.LC3
 547 0158 90000000 		.word	.LC4
 548 015c B4000000 		.word	.LC5
 549 0160 D8000000 		.word	.LC6
 550              		.cfi_endproc
 551              	.LFE72:
 553              		.section	.text.HallPositionOutput_20Pair,"ax",%progbits
 554              		.align	1
 555              		.global	HallPositionOutput_20Pair
 556              		.syntax unified
 557              		.thumb
ARM GAS  /var/folders/8x/_y6g3dfs0698dfd49y4vcg_w0000gn/T//ccpEJ4cE.s 			page 18


 558              		.thumb_func
 560              	HallPositionOutput_20Pair:
 561              	.LVL79:
 562              	.LFB73:
 335:Core/Src/main.c **** 
 336:Core/Src/main.c **** /**
 337:Core/Src/main.c ****  * @brief  This function is used to output the Hall position for a 20-pair motor. 
 338:Core/Src/main.c ****  * @param  theta_deg: The angle in degrees.
 339:Core/Src/main.c ****  * @retval None
 340:Core/Src/main.c ****  * @author Alex
 341:Core/Src/main.c ****  */
 342:Core/Src/main.c **** void HallPositionOutput_20Pair(theta_deg){
 563              		.loc 1 342 42 is_stmt 1 view -0
 564              		.cfi_startproc
 565              		@ args = 0, pretend = 0, frame = 0
 566              		@ frame_needed = 0, uses_anonymous_args = 0
 567              		.loc 1 342 42 is_stmt 0 view .LVU93
 568 0000 10B5     		push	{r4, lr}
 569              	.LCFI2:
 570              		.cfi_def_cfa_offset 8
 571              		.cfi_offset 4, -8
 572              		.cfi_offset 14, -4
 343:Core/Src/main.c ****   // Normalize the angle to a single electrical cycle (0-18 degrees)
 344:Core/Src/main.c ****   int theta_elec = theta_deg % 18;
 573              		.loc 1 344 3 is_stmt 1 view .LVU94
 574              		.loc 1 344 7 is_stmt 0 view .LVU95
 575 0002 4A4A     		ldr	r2, .L41
 576 0004 82FB0032 		smull	r3, r2, r2, r0
 577 0008 C317     		asrs	r3, r0, #31
 578 000a C3EBA203 		rsb	r3, r3, r2, asr #2
 579 000e 03EBC303 		add	r3, r3, r3, lsl #3
 580 0012 A0EB4303 		sub	r3, r0, r3, lsl #1
 581              	.LVL80:
 345:Core/Src/main.c **** 
 346:Core/Src/main.c ****   if (theta_elec >= 0 && theta_elec < 3) {
 582              		.loc 1 346 3 is_stmt 1 view .LVU96
 583 0016 112B     		cmp	r3, #17
 584 0018 00F28380 		bhi	.L31
 585 001c DFE803F0 		tbb	[pc, r3]
 586              	.L33:
 587 0020 09       		.byte	(.L38-.L33)/2
 588 0021 09       		.byte	(.L38-.L33)/2
 589 0022 09       		.byte	(.L38-.L33)/2
 590 0023 1D       		.byte	(.L37-.L33)/2
 591 0024 1D       		.byte	(.L37-.L33)/2
 592 0025 1D       		.byte	(.L37-.L33)/2
 593 0026 31       		.byte	(.L36-.L33)/2
 594 0027 31       		.byte	(.L36-.L33)/2
 595 0028 31       		.byte	(.L36-.L33)/2
 596 0029 45       		.byte	(.L35-.L33)/2
 597 002a 45       		.byte	(.L35-.L33)/2
 598 002b 45       		.byte	(.L35-.L33)/2
 599 002c 59       		.byte	(.L34-.L33)/2
 600 002d 59       		.byte	(.L34-.L33)/2
 601 002e 59       		.byte	(.L34-.L33)/2
 602 002f 6D       		.byte	(.L32-.L33)/2
 603 0030 6D       		.byte	(.L32-.L33)/2
ARM GAS  /var/folders/8x/_y6g3dfs0698dfd49y4vcg_w0000gn/T//ccpEJ4cE.s 			page 19


 604 0031 6D       		.byte	(.L32-.L33)/2
 605              		.p2align 1
 606              	.L38:
 347:Core/Src/main.c ****     HAL_GPIO_WritePin(HALL_A_GPIO_Port, HALL_A_Pin, GPIO_PIN_SET);
 607              		.loc 1 347 5 view .LVU97
 608 0032 3F4C     		ldr	r4, .L41+4
 609 0034 0122     		movs	r2, #1
 610 0036 0821     		movs	r1, #8
 611 0038 2046     		mov	r0, r4
 612              	.LVL81:
 613              		.loc 1 347 5 is_stmt 0 view .LVU98
 614 003a FFF7FEFF 		bl	HAL_GPIO_WritePin
 615              	.LVL82:
 348:Core/Src/main.c ****     HAL_GPIO_WritePin(HALL_B_GPIO_Port, HALL_B_Pin, GPIO_PIN_RESET);
 616              		.loc 1 348 5 is_stmt 1 view .LVU99
 617 003e 0022     		movs	r2, #0
 618 0040 2021     		movs	r1, #32
 619 0042 2046     		mov	r0, r4
 620 0044 FFF7FEFF 		bl	HAL_GPIO_WritePin
 621              	.LVL83:
 349:Core/Src/main.c ****     HAL_GPIO_WritePin(HALL_C_GPIO_Port, HALL_C_Pin, GPIO_PIN_SET);
 622              		.loc 1 349 5 view .LVU100
 623 0048 0122     		movs	r2, #1
 624 004a 8021     		movs	r1, #128
 625 004c 2046     		mov	r0, r4
 626 004e FFF7FEFF 		bl	HAL_GPIO_WritePin
 627              	.LVL84:
 350:Core/Src/main.c ****     printf("HALL A = 1, HALL B = 0, HALL C = 1\r\n");
 628              		.loc 1 350 5 view .LVU101
 629 0052 3848     		ldr	r0, .L41+8
 630 0054 FFF7FEFF 		bl	puts
 631              	.LVL85:
 632              	.L30:
 351:Core/Src/main.c ****   } else if (theta_elec >= 3 && theta_elec < 6) {
 352:Core/Src/main.c ****     HAL_GPIO_WritePin(HALL_A_GPIO_Port, HALL_A_Pin, GPIO_PIN_SET);
 353:Core/Src/main.c ****     HAL_GPIO_WritePin(HALL_B_GPIO_Port, HALL_B_Pin, GPIO_PIN_RESET);
 354:Core/Src/main.c ****     HAL_GPIO_WritePin(HALL_C_GPIO_Port, HALL_C_Pin, GPIO_PIN_RESET);
 355:Core/Src/main.c ****     printf("HALL A = 1, HALL B = 0, HALL C = 0\r\n");
 356:Core/Src/main.c ****   } else if (theta_elec >= 6 && theta_elec < 9) {
 357:Core/Src/main.c ****     HAL_GPIO_WritePin(HALL_A_GPIO_Port, HALL_A_Pin, GPIO_PIN_SET);
 358:Core/Src/main.c ****     HAL_GPIO_WritePin(HALL_B_GPIO_Port, HALL_B_Pin, GPIO_PIN_SET);
 359:Core/Src/main.c ****     HAL_GPIO_WritePin(HALL_C_GPIO_Port, HALL_C_Pin, GPIO_PIN_RESET);
 360:Core/Src/main.c ****     printf("HALL A = 1, HALL B = 1, HALL C = 0\r\n");
 361:Core/Src/main.c ****   } else if (theta_elec >= 9 && theta_elec < 12) {
 362:Core/Src/main.c ****     HAL_GPIO_WritePin(HALL_A_GPIO_Port, HALL_A_Pin, GPIO_PIN_RESET);
 363:Core/Src/main.c ****     HAL_GPIO_WritePin(HALL_B_GPIO_Port, HALL_B_Pin, GPIO_PIN_SET);
 364:Core/Src/main.c ****     HAL_GPIO_WritePin(HALL_C_GPIO_Port, HALL_C_Pin, GPIO_PIN_RESET);
 365:Core/Src/main.c ****     printf("HALL A = 0, HALL B = 1, HALL C = 0\r\n");
 366:Core/Src/main.c ****   } else if (theta_elec >= 12 && theta_elec < 15) {
 367:Core/Src/main.c ****     HAL_GPIO_WritePin(HALL_A_GPIO_Port, HALL_A_Pin, GPIO_PIN_RESET);
 368:Core/Src/main.c ****     HAL_GPIO_WritePin(HALL_B_GPIO_Port, HALL_B_Pin, GPIO_PIN_SET);
 369:Core/Src/main.c ****     HAL_GPIO_WritePin(HALL_C_GPIO_Port, HALL_C_Pin, GPIO_PIN_SET);
 370:Core/Src/main.c ****     printf("HALL A = 0, HALL B = 1, HALL C = 1\r\n");
 371:Core/Src/main.c ****   } else if (theta_elec >= 15 && theta_elec < 18) {
 372:Core/Src/main.c ****     HAL_GPIO_WritePin(HALL_A_GPIO_Port, HALL_A_Pin, GPIO_PIN_RESET);
 373:Core/Src/main.c ****     HAL_GPIO_WritePin(HALL_B_GPIO_Port, HALL_B_Pin, GPIO_PIN_RESET);
 374:Core/Src/main.c ****     HAL_GPIO_WritePin(HALL_C_GPIO_Port, HALL_C_Pin, GPIO_PIN_SET);
ARM GAS  /var/folders/8x/_y6g3dfs0698dfd49y4vcg_w0000gn/T//ccpEJ4cE.s 			page 20


 375:Core/Src/main.c ****     printf("HALL A = 0, HALL B = 0, HALL C = 1\r\n");
 376:Core/Src/main.c ****   } else {
 377:Core/Src/main.c ****     printf("Invalid angle: %d\r\n", theta_deg);
 378:Core/Src/main.c ****   }
 379:Core/Src/main.c **** 
 380:Core/Src/main.c **** }
 633              		.loc 1 380 1 is_stmt 0 view .LVU102
 634 0058 10BD     		pop	{r4, pc}
 635              	.LVL86:
 636              	.L37:
 352:Core/Src/main.c ****     HAL_GPIO_WritePin(HALL_B_GPIO_Port, HALL_B_Pin, GPIO_PIN_RESET);
 637              		.loc 1 352 5 is_stmt 1 view .LVU103
 638 005a 354C     		ldr	r4, .L41+4
 639 005c 0122     		movs	r2, #1
 640 005e 0821     		movs	r1, #8
 641 0060 2046     		mov	r0, r4
 642              	.LVL87:
 352:Core/Src/main.c ****     HAL_GPIO_WritePin(HALL_B_GPIO_Port, HALL_B_Pin, GPIO_PIN_RESET);
 643              		.loc 1 352 5 is_stmt 0 view .LVU104
 644 0062 FFF7FEFF 		bl	HAL_GPIO_WritePin
 645              	.LVL88:
 353:Core/Src/main.c ****     HAL_GPIO_WritePin(HALL_C_GPIO_Port, HALL_C_Pin, GPIO_PIN_RESET);
 646              		.loc 1 353 5 is_stmt 1 view .LVU105
 647 0066 0022     		movs	r2, #0
 648 0068 2021     		movs	r1, #32
 649 006a 2046     		mov	r0, r4
 650 006c FFF7FEFF 		bl	HAL_GPIO_WritePin
 651              	.LVL89:
 354:Core/Src/main.c ****     printf("HALL A = 1, HALL B = 0, HALL C = 0\r\n");
 652              		.loc 1 354 5 view .LVU106
 653 0070 0022     		movs	r2, #0
 654 0072 8021     		movs	r1, #128
 655 0074 2046     		mov	r0, r4
 656 0076 FFF7FEFF 		bl	HAL_GPIO_WritePin
 657              	.LVL90:
 355:Core/Src/main.c ****   } else if (theta_elec >= 6 && theta_elec < 9) {
 658              		.loc 1 355 5 view .LVU107
 659 007a 2F48     		ldr	r0, .L41+12
 660 007c FFF7FEFF 		bl	puts
 661              	.LVL91:
 662 0080 EAE7     		b	.L30
 663              	.LVL92:
 664              	.L36:
 357:Core/Src/main.c ****     HAL_GPIO_WritePin(HALL_B_GPIO_Port, HALL_B_Pin, GPIO_PIN_SET);
 665              		.loc 1 357 5 view .LVU108
 666 0082 2B4C     		ldr	r4, .L41+4
 667 0084 0122     		movs	r2, #1
 668 0086 0821     		movs	r1, #8
 669 0088 2046     		mov	r0, r4
 670              	.LVL93:
 357:Core/Src/main.c ****     HAL_GPIO_WritePin(HALL_B_GPIO_Port, HALL_B_Pin, GPIO_PIN_SET);
 671              		.loc 1 357 5 is_stmt 0 view .LVU109
 672 008a FFF7FEFF 		bl	HAL_GPIO_WritePin
 673              	.LVL94:
 358:Core/Src/main.c ****     HAL_GPIO_WritePin(HALL_C_GPIO_Port, HALL_C_Pin, GPIO_PIN_RESET);
 674              		.loc 1 358 5 is_stmt 1 view .LVU110
 675 008e 0122     		movs	r2, #1
ARM GAS  /var/folders/8x/_y6g3dfs0698dfd49y4vcg_w0000gn/T//ccpEJ4cE.s 			page 21


 676 0090 2021     		movs	r1, #32
 677 0092 2046     		mov	r0, r4
 678 0094 FFF7FEFF 		bl	HAL_GPIO_WritePin
 679              	.LVL95:
 359:Core/Src/main.c ****     printf("HALL A = 1, HALL B = 1, HALL C = 0\r\n");
 680              		.loc 1 359 5 view .LVU111
 681 0098 0022     		movs	r2, #0
 682 009a 8021     		movs	r1, #128
 683 009c 2046     		mov	r0, r4
 684 009e FFF7FEFF 		bl	HAL_GPIO_WritePin
 685              	.LVL96:
 360:Core/Src/main.c ****   } else if (theta_elec >= 9 && theta_elec < 12) {
 686              		.loc 1 360 5 view .LVU112
 687 00a2 2648     		ldr	r0, .L41+16
 688 00a4 FFF7FEFF 		bl	puts
 689              	.LVL97:
 690 00a8 D6E7     		b	.L30
 691              	.LVL98:
 692              	.L35:
 362:Core/Src/main.c ****     HAL_GPIO_WritePin(HALL_B_GPIO_Port, HALL_B_Pin, GPIO_PIN_SET);
 693              		.loc 1 362 5 view .LVU113
 694 00aa 214C     		ldr	r4, .L41+4
 695 00ac 0022     		movs	r2, #0
 696 00ae 0821     		movs	r1, #8
 697 00b0 2046     		mov	r0, r4
 698              	.LVL99:
 362:Core/Src/main.c ****     HAL_GPIO_WritePin(HALL_B_GPIO_Port, HALL_B_Pin, GPIO_PIN_SET);
 699              		.loc 1 362 5 is_stmt 0 view .LVU114
 700 00b2 FFF7FEFF 		bl	HAL_GPIO_WritePin
 701              	.LVL100:
 363:Core/Src/main.c ****     HAL_GPIO_WritePin(HALL_C_GPIO_Port, HALL_C_Pin, GPIO_PIN_RESET);
 702              		.loc 1 363 5 is_stmt 1 view .LVU115
 703 00b6 0122     		movs	r2, #1
 704 00b8 2021     		movs	r1, #32
 705 00ba 2046     		mov	r0, r4
 706 00bc FFF7FEFF 		bl	HAL_GPIO_WritePin
 707              	.LVL101:
 364:Core/Src/main.c ****     printf("HALL A = 0, HALL B = 1, HALL C = 0\r\n");
 708              		.loc 1 364 5 view .LVU116
 709 00c0 0022     		movs	r2, #0
 710 00c2 8021     		movs	r1, #128
 711 00c4 2046     		mov	r0, r4
 712 00c6 FFF7FEFF 		bl	HAL_GPIO_WritePin
 713              	.LVL102:
 365:Core/Src/main.c ****   } else if (theta_elec >= 12 && theta_elec < 15) {
 714              		.loc 1 365 5 view .LVU117
 715 00ca 1D48     		ldr	r0, .L41+20
 716 00cc FFF7FEFF 		bl	puts
 717              	.LVL103:
 718 00d0 C2E7     		b	.L30
 719              	.LVL104:
 720              	.L34:
 367:Core/Src/main.c ****     HAL_GPIO_WritePin(HALL_B_GPIO_Port, HALL_B_Pin, GPIO_PIN_SET);
 721              		.loc 1 367 5 view .LVU118
 722 00d2 174C     		ldr	r4, .L41+4
 723 00d4 0022     		movs	r2, #0
 724 00d6 0821     		movs	r1, #8
ARM GAS  /var/folders/8x/_y6g3dfs0698dfd49y4vcg_w0000gn/T//ccpEJ4cE.s 			page 22


 725 00d8 2046     		mov	r0, r4
 726              	.LVL105:
 367:Core/Src/main.c ****     HAL_GPIO_WritePin(HALL_B_GPIO_Port, HALL_B_Pin, GPIO_PIN_SET);
 727              		.loc 1 367 5 is_stmt 0 view .LVU119
 728 00da FFF7FEFF 		bl	HAL_GPIO_WritePin
 729              	.LVL106:
 368:Core/Src/main.c ****     HAL_GPIO_WritePin(HALL_C_GPIO_Port, HALL_C_Pin, GPIO_PIN_SET);
 730              		.loc 1 368 5 is_stmt 1 view .LVU120
 731 00de 0122     		movs	r2, #1
 732 00e0 2021     		movs	r1, #32
 733 00e2 2046     		mov	r0, r4
 734 00e4 FFF7FEFF 		bl	HAL_GPIO_WritePin
 735              	.LVL107:
 369:Core/Src/main.c ****     printf("HALL A = 0, HALL B = 1, HALL C = 1\r\n");
 736              		.loc 1 369 5 view .LVU121
 737 00e8 0122     		movs	r2, #1
 738 00ea 8021     		movs	r1, #128
 739 00ec 2046     		mov	r0, r4
 740 00ee FFF7FEFF 		bl	HAL_GPIO_WritePin
 741              	.LVL108:
 370:Core/Src/main.c ****   } else if (theta_elec >= 15 && theta_elec < 18) {
 742              		.loc 1 370 5 view .LVU122
 743 00f2 1448     		ldr	r0, .L41+24
 744 00f4 FFF7FEFF 		bl	puts
 745              	.LVL109:
 746 00f8 AEE7     		b	.L30
 747              	.LVL110:
 748              	.L32:
 372:Core/Src/main.c ****     HAL_GPIO_WritePin(HALL_B_GPIO_Port, HALL_B_Pin, GPIO_PIN_RESET);
 749              		.loc 1 372 5 view .LVU123
 750 00fa 0D4C     		ldr	r4, .L41+4
 751 00fc 0022     		movs	r2, #0
 752 00fe 0821     		movs	r1, #8
 753 0100 2046     		mov	r0, r4
 754              	.LVL111:
 372:Core/Src/main.c ****     HAL_GPIO_WritePin(HALL_B_GPIO_Port, HALL_B_Pin, GPIO_PIN_RESET);
 755              		.loc 1 372 5 is_stmt 0 view .LVU124
 756 0102 FFF7FEFF 		bl	HAL_GPIO_WritePin
 757              	.LVL112:
 373:Core/Src/main.c ****     HAL_GPIO_WritePin(HALL_C_GPIO_Port, HALL_C_Pin, GPIO_PIN_SET);
 758              		.loc 1 373 5 is_stmt 1 view .LVU125
 759 0106 0022     		movs	r2, #0
 760 0108 2021     		movs	r1, #32
 761 010a 2046     		mov	r0, r4
 762 010c FFF7FEFF 		bl	HAL_GPIO_WritePin
 763              	.LVL113:
 374:Core/Src/main.c ****     printf("HALL A = 0, HALL B = 0, HALL C = 1\r\n");
 764              		.loc 1 374 5 view .LVU126
 765 0110 0122     		movs	r2, #1
 766 0112 8021     		movs	r1, #128
 767 0114 2046     		mov	r0, r4
 768 0116 FFF7FEFF 		bl	HAL_GPIO_WritePin
 769              	.LVL114:
 375:Core/Src/main.c ****   } else {
 770              		.loc 1 375 5 view .LVU127
 771 011a 0B48     		ldr	r0, .L41+28
 772 011c FFF7FEFF 		bl	puts
ARM GAS  /var/folders/8x/_y6g3dfs0698dfd49y4vcg_w0000gn/T//ccpEJ4cE.s 			page 23


 773              	.LVL115:
 774 0120 9AE7     		b	.L30
 775              	.LVL116:
 776              	.L31:
 377:Core/Src/main.c ****   }
 777              		.loc 1 377 5 view .LVU128
 778 0122 0146     		mov	r1, r0
 779 0124 0948     		ldr	r0, .L41+32
 780              	.LVL117:
 377:Core/Src/main.c ****   }
 781              		.loc 1 377 5 is_stmt 0 view .LVU129
 782 0126 FFF7FEFF 		bl	printf
 783              	.LVL118:
 784              		.loc 1 380 1 view .LVU130
 785 012a 95E7     		b	.L30
 786              	.L42:
 787              		.align	2
 788              	.L41:
 789 012c 398EE338 		.word	954437177
 790 0130 000C0140 		.word	1073810432
 791 0134 00000000 		.word	.LC0
 792 0138 24000000 		.word	.LC1
 793 013c 48000000 		.word	.LC2
 794 0140 6C000000 		.word	.LC3
 795 0144 90000000 		.word	.LC4
 796 0148 B4000000 		.word	.LC5
 797 014c D8000000 		.word	.LC6
 798              		.cfi_endproc
 799              	.LFE73:
 801              		.section	.text.__io_putchar,"ax",%progbits
 802              		.align	1
 803              		.global	__io_putchar
 804              		.syntax unified
 805              		.thumb
 806              		.thumb_func
 808              	__io_putchar:
 809              	.LVL119:
 810              	.LFB74:
 381:Core/Src/main.c **** 
 382:Core/Src/main.c **** /**
 383:Core/Src/main.c ****  * @brief  Retargets the C library printf function to the USART.
 384:Core/Src/main.c ****  * @retval None
 385:Core/Src/main.c ****  */
 386:Core/Src/main.c **** PUTCHAR_PROTOTYPE {
 811              		.loc 1 386 19 is_stmt 1 view -0
 812              		.cfi_startproc
 813              		@ args = 0, pretend = 0, frame = 8
 814              		@ frame_needed = 0, uses_anonymous_args = 0
 815              		.loc 1 386 19 is_stmt 0 view .LVU132
 816 0000 00B5     		push	{lr}
 817              	.LCFI3:
 818              		.cfi_def_cfa_offset 4
 819              		.cfi_offset 14, -4
 820 0002 83B0     		sub	sp, sp, #12
 821              	.LCFI4:
 822              		.cfi_def_cfa_offset 16
 823 0004 0190     		str	r0, [sp, #4]
ARM GAS  /var/folders/8x/_y6g3dfs0698dfd49y4vcg_w0000gn/T//ccpEJ4cE.s 			page 24


 387:Core/Src/main.c ****   HAL_UART_Transmit(&huart1, (uint8_t *)&ch, 1, 0xFFFF);
 824              		.loc 1 387 3 is_stmt 1 view .LVU133
 825 0006 4FF6FF73 		movw	r3, #65535
 826 000a 0122     		movs	r2, #1
 827 000c 01A9     		add	r1, sp, #4
 828 000e 0348     		ldr	r0, .L45
 829              	.LVL120:
 830              		.loc 1 387 3 is_stmt 0 view .LVU134
 831 0010 FFF7FEFF 		bl	HAL_UART_Transmit
 832              	.LVL121:
 388:Core/Src/main.c ****   return ch;
 833              		.loc 1 388 3 is_stmt 1 view .LVU135
 389:Core/Src/main.c **** }
 834              		.loc 1 389 1 is_stmt 0 view .LVU136
 835 0014 0198     		ldr	r0, [sp, #4]
 836 0016 03B0     		add	sp, sp, #12
 837              	.LCFI5:
 838              		.cfi_def_cfa_offset 4
 839              		@ sp needed
 840 0018 5DF804FB 		ldr	pc, [sp], #4
 841              	.L46:
 842              		.align	2
 843              	.L45:
 844 001c 00000000 		.word	huart1
 845              		.cfi_endproc
 846              	.LFE74:
 848              		.section	.rodata.Error_Handler.str1.4,"aMS",%progbits,1
 849              		.align	2
 850              	.LC7:
 851 0000 4572726F 		.ascii	"Error\015\000"
 851      720D00
 852              		.section	.text.Error_Handler,"ax",%progbits
 853              		.align	1
 854              		.global	Error_Handler
 855              		.syntax unified
 856              		.thumb
 857              		.thumb_func
 859              	Error_Handler:
 860              	.LFB75:
 390:Core/Src/main.c **** /* USER CODE END 4 */
 391:Core/Src/main.c **** 
 392:Core/Src/main.c **** /**
 393:Core/Src/main.c ****   * @brief  This function is executed in case of error occurrence.
 394:Core/Src/main.c ****   * @retval None
 395:Core/Src/main.c ****   */
 396:Core/Src/main.c **** void Error_Handler(void)
 397:Core/Src/main.c **** {
 861              		.loc 1 397 1 is_stmt 1 view -0
 862              		.cfi_startproc
 863              		@ Volatile: function does not return.
 864              		@ args = 0, pretend = 0, frame = 0
 865              		@ frame_needed = 0, uses_anonymous_args = 0
 866 0000 08B5     		push	{r3, lr}
 867              	.LCFI6:
 868              		.cfi_def_cfa_offset 8
 869              		.cfi_offset 3, -8
 870              		.cfi_offset 14, -4
ARM GAS  /var/folders/8x/_y6g3dfs0698dfd49y4vcg_w0000gn/T//ccpEJ4cE.s 			page 25


 398:Core/Src/main.c ****   /* USER CODE BEGIN Error_Handler_Debug */
 399:Core/Src/main.c ****   /* User can add his own implementation to report the HAL error return state */
 400:Core/Src/main.c ****   __disable_irq();
 871              		.loc 1 400 3 view .LVU138
 872              	.LBB4:
 873              	.LBI4:
 874              		.file 2 "Drivers/CMSIS/Include/cmsis_gcc.h"
   1:Drivers/CMSIS/Include/cmsis_gcc.h **** /**************************************************************************//**
   2:Drivers/CMSIS/Include/cmsis_gcc.h ****  * @file     cmsis_gcc.h
   3:Drivers/CMSIS/Include/cmsis_gcc.h ****  * @brief    CMSIS compiler GCC header file
   4:Drivers/CMSIS/Include/cmsis_gcc.h ****  * @version  V5.0.4
   5:Drivers/CMSIS/Include/cmsis_gcc.h ****  * @date     09. April 2018
   6:Drivers/CMSIS/Include/cmsis_gcc.h ****  ******************************************************************************/
   7:Drivers/CMSIS/Include/cmsis_gcc.h **** /*
   8:Drivers/CMSIS/Include/cmsis_gcc.h ****  * Copyright (c) 2009-2018 Arm Limited. All rights reserved.
   9:Drivers/CMSIS/Include/cmsis_gcc.h ****  *
  10:Drivers/CMSIS/Include/cmsis_gcc.h ****  * SPDX-License-Identifier: Apache-2.0
  11:Drivers/CMSIS/Include/cmsis_gcc.h ****  *
  12:Drivers/CMSIS/Include/cmsis_gcc.h ****  * Licensed under the Apache License, Version 2.0 (the License); you may
  13:Drivers/CMSIS/Include/cmsis_gcc.h ****  * not use this file except in compliance with the License.
  14:Drivers/CMSIS/Include/cmsis_gcc.h ****  * You may obtain a copy of the License at
  15:Drivers/CMSIS/Include/cmsis_gcc.h ****  *
  16:Drivers/CMSIS/Include/cmsis_gcc.h ****  * www.apache.org/licenses/LICENSE-2.0
  17:Drivers/CMSIS/Include/cmsis_gcc.h ****  *
  18:Drivers/CMSIS/Include/cmsis_gcc.h ****  * Unless required by applicable law or agreed to in writing, software
  19:Drivers/CMSIS/Include/cmsis_gcc.h ****  * distributed under the License is distributed on an AS IS BASIS, WITHOUT
  20:Drivers/CMSIS/Include/cmsis_gcc.h ****  * WARRANTIES OR CONDITIONS OF ANY KIND, either express or implied.
  21:Drivers/CMSIS/Include/cmsis_gcc.h ****  * See the License for the specific language governing permissions and
  22:Drivers/CMSIS/Include/cmsis_gcc.h ****  * limitations under the License.
  23:Drivers/CMSIS/Include/cmsis_gcc.h ****  */
  24:Drivers/CMSIS/Include/cmsis_gcc.h **** 
  25:Drivers/CMSIS/Include/cmsis_gcc.h **** #ifndef __CMSIS_GCC_H
  26:Drivers/CMSIS/Include/cmsis_gcc.h **** #define __CMSIS_GCC_H
  27:Drivers/CMSIS/Include/cmsis_gcc.h **** 
  28:Drivers/CMSIS/Include/cmsis_gcc.h **** /* ignore some GCC warnings */
  29:Drivers/CMSIS/Include/cmsis_gcc.h **** #pragma GCC diagnostic push
  30:Drivers/CMSIS/Include/cmsis_gcc.h **** #pragma GCC diagnostic ignored "-Wsign-conversion"
  31:Drivers/CMSIS/Include/cmsis_gcc.h **** #pragma GCC diagnostic ignored "-Wconversion"
  32:Drivers/CMSIS/Include/cmsis_gcc.h **** #pragma GCC diagnostic ignored "-Wunused-parameter"
  33:Drivers/CMSIS/Include/cmsis_gcc.h **** 
  34:Drivers/CMSIS/Include/cmsis_gcc.h **** /* Fallback for __has_builtin */
  35:Drivers/CMSIS/Include/cmsis_gcc.h **** #ifndef __has_builtin
  36:Drivers/CMSIS/Include/cmsis_gcc.h ****   #define __has_builtin(x) (0)
  37:Drivers/CMSIS/Include/cmsis_gcc.h **** #endif
  38:Drivers/CMSIS/Include/cmsis_gcc.h **** 
  39:Drivers/CMSIS/Include/cmsis_gcc.h **** /* CMSIS compiler specific defines */
  40:Drivers/CMSIS/Include/cmsis_gcc.h **** #ifndef   __ASM
  41:Drivers/CMSIS/Include/cmsis_gcc.h ****   #define __ASM                                  __asm
  42:Drivers/CMSIS/Include/cmsis_gcc.h **** #endif
  43:Drivers/CMSIS/Include/cmsis_gcc.h **** #ifndef   __INLINE
  44:Drivers/CMSIS/Include/cmsis_gcc.h ****   #define __INLINE                               inline
  45:Drivers/CMSIS/Include/cmsis_gcc.h **** #endif
  46:Drivers/CMSIS/Include/cmsis_gcc.h **** #ifndef   __STATIC_INLINE
  47:Drivers/CMSIS/Include/cmsis_gcc.h ****   #define __STATIC_INLINE                        static inline
  48:Drivers/CMSIS/Include/cmsis_gcc.h **** #endif
  49:Drivers/CMSIS/Include/cmsis_gcc.h **** #ifndef   __STATIC_FORCEINLINE                 
  50:Drivers/CMSIS/Include/cmsis_gcc.h ****   #define __STATIC_FORCEINLINE                   __attribute__((always_inline)) static inline
ARM GAS  /var/folders/8x/_y6g3dfs0698dfd49y4vcg_w0000gn/T//ccpEJ4cE.s 			page 26


  51:Drivers/CMSIS/Include/cmsis_gcc.h **** #endif                                           
  52:Drivers/CMSIS/Include/cmsis_gcc.h **** #ifndef   __NO_RETURN
  53:Drivers/CMSIS/Include/cmsis_gcc.h ****   #define __NO_RETURN                            __attribute__((__noreturn__))
  54:Drivers/CMSIS/Include/cmsis_gcc.h **** #endif
  55:Drivers/CMSIS/Include/cmsis_gcc.h **** #ifndef   __USED
  56:Drivers/CMSIS/Include/cmsis_gcc.h ****   #define __USED                                 __attribute__((used))
  57:Drivers/CMSIS/Include/cmsis_gcc.h **** #endif
  58:Drivers/CMSIS/Include/cmsis_gcc.h **** #ifndef   __WEAK
  59:Drivers/CMSIS/Include/cmsis_gcc.h ****   #define __WEAK                                 __attribute__((weak))
  60:Drivers/CMSIS/Include/cmsis_gcc.h **** #endif
  61:Drivers/CMSIS/Include/cmsis_gcc.h **** #ifndef   __PACKED
  62:Drivers/CMSIS/Include/cmsis_gcc.h ****   #define __PACKED                               __attribute__((packed, aligned(1)))
  63:Drivers/CMSIS/Include/cmsis_gcc.h **** #endif
  64:Drivers/CMSIS/Include/cmsis_gcc.h **** #ifndef   __PACKED_STRUCT
  65:Drivers/CMSIS/Include/cmsis_gcc.h ****   #define __PACKED_STRUCT                        struct __attribute__((packed, aligned(1)))
  66:Drivers/CMSIS/Include/cmsis_gcc.h **** #endif
  67:Drivers/CMSIS/Include/cmsis_gcc.h **** #ifndef   __PACKED_UNION
  68:Drivers/CMSIS/Include/cmsis_gcc.h ****   #define __PACKED_UNION                         union __attribute__((packed, aligned(1)))
  69:Drivers/CMSIS/Include/cmsis_gcc.h **** #endif
  70:Drivers/CMSIS/Include/cmsis_gcc.h **** #ifndef   __UNALIGNED_UINT32        /* deprecated */
  71:Drivers/CMSIS/Include/cmsis_gcc.h ****   #pragma GCC diagnostic push
  72:Drivers/CMSIS/Include/cmsis_gcc.h ****   #pragma GCC diagnostic ignored "-Wpacked"
  73:Drivers/CMSIS/Include/cmsis_gcc.h ****   #pragma GCC diagnostic ignored "-Wattributes"
  74:Drivers/CMSIS/Include/cmsis_gcc.h ****   struct __attribute__((packed)) T_UINT32 { uint32_t v; };
  75:Drivers/CMSIS/Include/cmsis_gcc.h ****   #pragma GCC diagnostic pop
  76:Drivers/CMSIS/Include/cmsis_gcc.h ****   #define __UNALIGNED_UINT32(x)                  (((struct T_UINT32 *)(x))->v)
  77:Drivers/CMSIS/Include/cmsis_gcc.h **** #endif
  78:Drivers/CMSIS/Include/cmsis_gcc.h **** #ifndef   __UNALIGNED_UINT16_WRITE
  79:Drivers/CMSIS/Include/cmsis_gcc.h ****   #pragma GCC diagnostic push
  80:Drivers/CMSIS/Include/cmsis_gcc.h ****   #pragma GCC diagnostic ignored "-Wpacked"
  81:Drivers/CMSIS/Include/cmsis_gcc.h ****   #pragma GCC diagnostic ignored "-Wattributes"
  82:Drivers/CMSIS/Include/cmsis_gcc.h ****   __PACKED_STRUCT T_UINT16_WRITE { uint16_t v; };
  83:Drivers/CMSIS/Include/cmsis_gcc.h ****   #pragma GCC diagnostic pop
  84:Drivers/CMSIS/Include/cmsis_gcc.h ****   #define __UNALIGNED_UINT16_WRITE(addr, val)    (void)((((struct T_UINT16_WRITE *)(void *)(addr))-
  85:Drivers/CMSIS/Include/cmsis_gcc.h **** #endif
  86:Drivers/CMSIS/Include/cmsis_gcc.h **** #ifndef   __UNALIGNED_UINT16_READ
  87:Drivers/CMSIS/Include/cmsis_gcc.h ****   #pragma GCC diagnostic push
  88:Drivers/CMSIS/Include/cmsis_gcc.h ****   #pragma GCC diagnostic ignored "-Wpacked"
  89:Drivers/CMSIS/Include/cmsis_gcc.h ****   #pragma GCC diagnostic ignored "-Wattributes"
  90:Drivers/CMSIS/Include/cmsis_gcc.h ****   __PACKED_STRUCT T_UINT16_READ { uint16_t v; };
  91:Drivers/CMSIS/Include/cmsis_gcc.h ****   #pragma GCC diagnostic pop
  92:Drivers/CMSIS/Include/cmsis_gcc.h ****   #define __UNALIGNED_UINT16_READ(addr)          (((const struct T_UINT16_READ *)(const void *)(add
  93:Drivers/CMSIS/Include/cmsis_gcc.h **** #endif
  94:Drivers/CMSIS/Include/cmsis_gcc.h **** #ifndef   __UNALIGNED_UINT32_WRITE
  95:Drivers/CMSIS/Include/cmsis_gcc.h ****   #pragma GCC diagnostic push
  96:Drivers/CMSIS/Include/cmsis_gcc.h ****   #pragma GCC diagnostic ignored "-Wpacked"
  97:Drivers/CMSIS/Include/cmsis_gcc.h ****   #pragma GCC diagnostic ignored "-Wattributes"
  98:Drivers/CMSIS/Include/cmsis_gcc.h ****   __PACKED_STRUCT T_UINT32_WRITE { uint32_t v; };
  99:Drivers/CMSIS/Include/cmsis_gcc.h ****   #pragma GCC diagnostic pop
 100:Drivers/CMSIS/Include/cmsis_gcc.h ****   #define __UNALIGNED_UINT32_WRITE(addr, val)    (void)((((struct T_UINT32_WRITE *)(void *)(addr))-
 101:Drivers/CMSIS/Include/cmsis_gcc.h **** #endif
 102:Drivers/CMSIS/Include/cmsis_gcc.h **** #ifndef   __UNALIGNED_UINT32_READ
 103:Drivers/CMSIS/Include/cmsis_gcc.h ****   #pragma GCC diagnostic push
 104:Drivers/CMSIS/Include/cmsis_gcc.h ****   #pragma GCC diagnostic ignored "-Wpacked"
 105:Drivers/CMSIS/Include/cmsis_gcc.h ****   #pragma GCC diagnostic ignored "-Wattributes"
 106:Drivers/CMSIS/Include/cmsis_gcc.h ****   __PACKED_STRUCT T_UINT32_READ { uint32_t v; };
 107:Drivers/CMSIS/Include/cmsis_gcc.h ****   #pragma GCC diagnostic pop
ARM GAS  /var/folders/8x/_y6g3dfs0698dfd49y4vcg_w0000gn/T//ccpEJ4cE.s 			page 27


 108:Drivers/CMSIS/Include/cmsis_gcc.h ****   #define __UNALIGNED_UINT32_READ(addr)          (((const struct T_UINT32_READ *)(const void *)(add
 109:Drivers/CMSIS/Include/cmsis_gcc.h **** #endif
 110:Drivers/CMSIS/Include/cmsis_gcc.h **** #ifndef   __ALIGNED
 111:Drivers/CMSIS/Include/cmsis_gcc.h ****   #define __ALIGNED(x)                           __attribute__((aligned(x)))
 112:Drivers/CMSIS/Include/cmsis_gcc.h **** #endif
 113:Drivers/CMSIS/Include/cmsis_gcc.h **** #ifndef   __RESTRICT
 114:Drivers/CMSIS/Include/cmsis_gcc.h ****   #define __RESTRICT                             __restrict
 115:Drivers/CMSIS/Include/cmsis_gcc.h **** #endif
 116:Drivers/CMSIS/Include/cmsis_gcc.h **** 
 117:Drivers/CMSIS/Include/cmsis_gcc.h **** 
 118:Drivers/CMSIS/Include/cmsis_gcc.h **** /* ###########################  Core Function Access  ########################### */
 119:Drivers/CMSIS/Include/cmsis_gcc.h **** /** \ingroup  CMSIS_Core_FunctionInterface
 120:Drivers/CMSIS/Include/cmsis_gcc.h ****     \defgroup CMSIS_Core_RegAccFunctions CMSIS Core Register Access Functions
 121:Drivers/CMSIS/Include/cmsis_gcc.h ****   @{
 122:Drivers/CMSIS/Include/cmsis_gcc.h ****  */
 123:Drivers/CMSIS/Include/cmsis_gcc.h **** 
 124:Drivers/CMSIS/Include/cmsis_gcc.h **** /**
 125:Drivers/CMSIS/Include/cmsis_gcc.h ****   \brief   Enable IRQ Interrupts
 126:Drivers/CMSIS/Include/cmsis_gcc.h ****   \details Enables IRQ interrupts by clearing the I-bit in the CPSR.
 127:Drivers/CMSIS/Include/cmsis_gcc.h ****            Can only be executed in Privileged modes.
 128:Drivers/CMSIS/Include/cmsis_gcc.h ****  */
 129:Drivers/CMSIS/Include/cmsis_gcc.h **** __STATIC_FORCEINLINE void __enable_irq(void)
 130:Drivers/CMSIS/Include/cmsis_gcc.h **** {
 131:Drivers/CMSIS/Include/cmsis_gcc.h ****   __ASM volatile ("cpsie i" : : : "memory");
 132:Drivers/CMSIS/Include/cmsis_gcc.h **** }
 133:Drivers/CMSIS/Include/cmsis_gcc.h **** 
 134:Drivers/CMSIS/Include/cmsis_gcc.h **** 
 135:Drivers/CMSIS/Include/cmsis_gcc.h **** /**
 136:Drivers/CMSIS/Include/cmsis_gcc.h ****   \brief   Disable IRQ Interrupts
 137:Drivers/CMSIS/Include/cmsis_gcc.h ****   \details Disables IRQ interrupts by setting the I-bit in the CPSR.
 138:Drivers/CMSIS/Include/cmsis_gcc.h ****            Can only be executed in Privileged modes.
 139:Drivers/CMSIS/Include/cmsis_gcc.h ****  */
 140:Drivers/CMSIS/Include/cmsis_gcc.h **** __STATIC_FORCEINLINE void __disable_irq(void)
 875              		.loc 2 140 27 view .LVU139
 876              	.LBB5:
 141:Drivers/CMSIS/Include/cmsis_gcc.h **** {
 142:Drivers/CMSIS/Include/cmsis_gcc.h ****   __ASM volatile ("cpsid i" : : : "memory");
 877              		.loc 2 142 3 view .LVU140
 878              		.syntax unified
 879              	@ 142 "Drivers/CMSIS/Include/cmsis_gcc.h" 1
 880 0002 72B6     		cpsid i
 881              	@ 0 "" 2
 882              		.thumb
 883              		.syntax unified
 884              	.L48:
 885              	.LBE5:
 886              	.LBE4:
 401:Core/Src/main.c ****   while (1) {
 887              		.loc 1 401 3 view .LVU141
 402:Core/Src/main.c ****     printf("Error\r\n");
 888              		.loc 1 402 5 view .LVU142
 889 0004 0348     		ldr	r0, .L50
 890 0006 FFF7FEFF 		bl	puts
 891              	.LVL122:
 403:Core/Src/main.c ****     HAL_Delay(100);
 892              		.loc 1 403 5 discriminator 1 view .LVU143
 893 000a 6420     		movs	r0, #100
ARM GAS  /var/folders/8x/_y6g3dfs0698dfd49y4vcg_w0000gn/T//ccpEJ4cE.s 			page 28


 894 000c FFF7FEFF 		bl	HAL_Delay
 895              	.LVL123:
 401:Core/Src/main.c ****   while (1) {
 896              		.loc 1 401 9 view .LVU144
 897 0010 F8E7     		b	.L48
 898              	.L51:
 899 0012 00BF     		.align	2
 900              	.L50:
 901 0014 00000000 		.word	.LC7
 902              		.cfi_endproc
 903              	.LFE75:
 905              		.section	.text.SystemClock_Config,"ax",%progbits
 906              		.align	1
 907              		.global	SystemClock_Config
 908              		.syntax unified
 909              		.thumb
 910              		.thumb_func
 912              	SystemClock_Config:
 913              	.LFB69:
 172:Core/Src/main.c ****   RCC_OscInitTypeDef RCC_OscInitStruct = {0};
 914              		.loc 1 172 1 view -0
 915              		.cfi_startproc
 916              		@ args = 0, pretend = 0, frame = 80
 917              		@ frame_needed = 0, uses_anonymous_args = 0
 918 0000 00B5     		push	{lr}
 919              	.LCFI7:
 920              		.cfi_def_cfa_offset 4
 921              		.cfi_offset 14, -4
 922 0002 95B0     		sub	sp, sp, #84
 923              	.LCFI8:
 924              		.cfi_def_cfa_offset 88
 173:Core/Src/main.c ****   RCC_ClkInitTypeDef RCC_ClkInitStruct = {0};
 925              		.loc 1 173 3 view .LVU146
 173:Core/Src/main.c ****   RCC_ClkInitTypeDef RCC_ClkInitStruct = {0};
 926              		.loc 1 173 22 is_stmt 0 view .LVU147
 927 0004 2822     		movs	r2, #40
 928 0006 0021     		movs	r1, #0
 929 0008 0DEB0200 		add	r0, sp, r2
 930 000c FFF7FEFF 		bl	memset
 931              	.LVL124:
 174:Core/Src/main.c ****   RCC_PeriphCLKInitTypeDef PeriphClkInit = {0};
 932              		.loc 1 174 3 is_stmt 1 view .LVU148
 174:Core/Src/main.c ****   RCC_PeriphCLKInitTypeDef PeriphClkInit = {0};
 933              		.loc 1 174 22 is_stmt 0 view .LVU149
 934 0010 0023     		movs	r3, #0
 935 0012 0593     		str	r3, [sp, #20]
 936 0014 0693     		str	r3, [sp, #24]
 937 0016 0793     		str	r3, [sp, #28]
 938 0018 0893     		str	r3, [sp, #32]
 939 001a 0993     		str	r3, [sp, #36]
 175:Core/Src/main.c **** 
 940              		.loc 1 175 3 is_stmt 1 view .LVU150
 175:Core/Src/main.c **** 
 941              		.loc 1 175 28 is_stmt 0 view .LVU151
 942 001c 0193     		str	r3, [sp, #4]
 943 001e 0293     		str	r3, [sp, #8]
 944 0020 0393     		str	r3, [sp, #12]
ARM GAS  /var/folders/8x/_y6g3dfs0698dfd49y4vcg_w0000gn/T//ccpEJ4cE.s 			page 29


 945 0022 0493     		str	r3, [sp, #16]
 180:Core/Src/main.c ****   RCC_OscInitStruct.HSIState = RCC_HSI_ON;
 946              		.loc 1 180 3 is_stmt 1 view .LVU152
 180:Core/Src/main.c ****   RCC_OscInitStruct.HSIState = RCC_HSI_ON;
 947              		.loc 1 180 36 is_stmt 0 view .LVU153
 948 0024 0223     		movs	r3, #2
 949 0026 0A93     		str	r3, [sp, #40]
 181:Core/Src/main.c ****   RCC_OscInitStruct.HSICalibrationValue = RCC_HSICALIBRATION_DEFAULT;
 950              		.loc 1 181 3 is_stmt 1 view .LVU154
 181:Core/Src/main.c ****   RCC_OscInitStruct.HSICalibrationValue = RCC_HSICALIBRATION_DEFAULT;
 951              		.loc 1 181 30 is_stmt 0 view .LVU155
 952 0028 0122     		movs	r2, #1
 953 002a 0E92     		str	r2, [sp, #56]
 182:Core/Src/main.c ****   RCC_OscInitStruct.PLL.PLLState = RCC_PLL_ON;
 954              		.loc 1 182 3 is_stmt 1 view .LVU156
 182:Core/Src/main.c ****   RCC_OscInitStruct.PLL.PLLState = RCC_PLL_ON;
 955              		.loc 1 182 41 is_stmt 0 view .LVU157
 956 002c 1022     		movs	r2, #16
 957 002e 0F92     		str	r2, [sp, #60]
 183:Core/Src/main.c ****   RCC_OscInitStruct.PLL.PLLSource = RCC_PLLSOURCE_HSI_DIV2;
 958              		.loc 1 183 3 is_stmt 1 view .LVU158
 183:Core/Src/main.c ****   RCC_OscInitStruct.PLL.PLLSource = RCC_PLLSOURCE_HSI_DIV2;
 959              		.loc 1 183 34 is_stmt 0 view .LVU159
 960 0030 1193     		str	r3, [sp, #68]
 184:Core/Src/main.c ****   RCC_OscInitStruct.PLL.PLLMUL = RCC_PLL_MUL16;
 961              		.loc 1 184 3 is_stmt 1 view .LVU160
 185:Core/Src/main.c ****   if (HAL_RCC_OscConfig(&RCC_OscInitStruct) != HAL_OK)
 962              		.loc 1 185 3 view .LVU161
 185:Core/Src/main.c ****   if (HAL_RCC_OscConfig(&RCC_OscInitStruct) != HAL_OK)
 963              		.loc 1 185 32 is_stmt 0 view .LVU162
 964 0032 4FF46013 		mov	r3, #3670016
 965 0036 1393     		str	r3, [sp, #76]
 186:Core/Src/main.c ****   {
 966              		.loc 1 186 3 is_stmt 1 view .LVU163
 186:Core/Src/main.c ****   {
 967              		.loc 1 186 7 is_stmt 0 view .LVU164
 968 0038 0AA8     		add	r0, sp, #40
 969 003a FFF7FEFF 		bl	HAL_RCC_OscConfig
 970              	.LVL125:
 186:Core/Src/main.c ****   {
 971              		.loc 1 186 6 discriminator 1 view .LVU165
 972 003e C8B9     		cbnz	r0, .L57
 193:Core/Src/main.c ****                               |RCC_CLOCKTYPE_PCLK1|RCC_CLOCKTYPE_PCLK2;
 973              		.loc 1 193 3 is_stmt 1 view .LVU166
 193:Core/Src/main.c ****                               |RCC_CLOCKTYPE_PCLK1|RCC_CLOCKTYPE_PCLK2;
 974              		.loc 1 193 31 is_stmt 0 view .LVU167
 975 0040 0F23     		movs	r3, #15
 976 0042 0593     		str	r3, [sp, #20]
 195:Core/Src/main.c ****   RCC_ClkInitStruct.AHBCLKDivider = RCC_SYSCLK_DIV1;
 977              		.loc 1 195 3 is_stmt 1 view .LVU168
 195:Core/Src/main.c ****   RCC_ClkInitStruct.AHBCLKDivider = RCC_SYSCLK_DIV1;
 978              		.loc 1 195 34 is_stmt 0 view .LVU169
 979 0044 0221     		movs	r1, #2
 980 0046 0691     		str	r1, [sp, #24]
 196:Core/Src/main.c ****   RCC_ClkInitStruct.APB1CLKDivider = RCC_HCLK_DIV2;
 981              		.loc 1 196 3 is_stmt 1 view .LVU170
 196:Core/Src/main.c ****   RCC_ClkInitStruct.APB1CLKDivider = RCC_HCLK_DIV2;
ARM GAS  /var/folders/8x/_y6g3dfs0698dfd49y4vcg_w0000gn/T//ccpEJ4cE.s 			page 30


 982              		.loc 1 196 35 is_stmt 0 view .LVU171
 983 0048 0023     		movs	r3, #0
 984 004a 0793     		str	r3, [sp, #28]
 197:Core/Src/main.c ****   RCC_ClkInitStruct.APB2CLKDivider = RCC_HCLK_DIV1;
 985              		.loc 1 197 3 is_stmt 1 view .LVU172
 197:Core/Src/main.c ****   RCC_ClkInitStruct.APB2CLKDivider = RCC_HCLK_DIV1;
 986              		.loc 1 197 36 is_stmt 0 view .LVU173
 987 004c 4FF48062 		mov	r2, #1024
 988 0050 0892     		str	r2, [sp, #32]
 198:Core/Src/main.c **** 
 989              		.loc 1 198 3 is_stmt 1 view .LVU174
 198:Core/Src/main.c **** 
 990              		.loc 1 198 36 is_stmt 0 view .LVU175
 991 0052 0993     		str	r3, [sp, #36]
 200:Core/Src/main.c ****   {
 992              		.loc 1 200 3 is_stmt 1 view .LVU176
 200:Core/Src/main.c ****   {
 993              		.loc 1 200 7 is_stmt 0 view .LVU177
 994 0054 05A8     		add	r0, sp, #20
 995 0056 FFF7FEFF 		bl	HAL_RCC_ClockConfig
 996              	.LVL126:
 200:Core/Src/main.c ****   {
 997              		.loc 1 200 6 discriminator 1 view .LVU178
 998 005a 68B9     		cbnz	r0, .L58
 204:Core/Src/main.c ****   PeriphClkInit.AdcClockSelection = RCC_ADCPCLK2_DIV6;
 999              		.loc 1 204 3 is_stmt 1 view .LVU179
 204:Core/Src/main.c ****   PeriphClkInit.AdcClockSelection = RCC_ADCPCLK2_DIV6;
 1000              		.loc 1 204 38 is_stmt 0 view .LVU180
 1001 005c 0223     		movs	r3, #2
 1002 005e 0193     		str	r3, [sp, #4]
 205:Core/Src/main.c ****   if (HAL_RCCEx_PeriphCLKConfig(&PeriphClkInit) != HAL_OK)
 1003              		.loc 1 205 3 is_stmt 1 view .LVU181
 205:Core/Src/main.c ****   if (HAL_RCCEx_PeriphCLKConfig(&PeriphClkInit) != HAL_OK)
 1004              		.loc 1 205 35 is_stmt 0 view .LVU182
 1005 0060 4FF40043 		mov	r3, #32768
 1006 0064 0393     		str	r3, [sp, #12]
 206:Core/Src/main.c ****   {
 1007              		.loc 1 206 3 is_stmt 1 view .LVU183
 206:Core/Src/main.c ****   {
 1008              		.loc 1 206 7 is_stmt 0 view .LVU184
 1009 0066 01A8     		add	r0, sp, #4
 1010 0068 FFF7FEFF 		bl	HAL_RCCEx_PeriphCLKConfig
 1011              	.LVL127:
 206:Core/Src/main.c ****   {
 1012              		.loc 1 206 6 discriminator 1 view .LVU185
 1013 006c 30B9     		cbnz	r0, .L59
 210:Core/Src/main.c **** 
 1014              		.loc 1 210 1 view .LVU186
 1015 006e 15B0     		add	sp, sp, #84
 1016              	.LCFI9:
 1017              		.cfi_remember_state
 1018              		.cfi_def_cfa_offset 4
 1019              		@ sp needed
 1020 0070 5DF804FB 		ldr	pc, [sp], #4
 1021              	.L57:
 1022              	.LCFI10:
 1023              		.cfi_restore_state
ARM GAS  /var/folders/8x/_y6g3dfs0698dfd49y4vcg_w0000gn/T//ccpEJ4cE.s 			page 31


 188:Core/Src/main.c ****   }
 1024              		.loc 1 188 5 is_stmt 1 view .LVU187
 1025 0074 FFF7FEFF 		bl	Error_Handler
 1026              	.LVL128:
 1027              	.L58:
 202:Core/Src/main.c ****   }
 1028              		.loc 1 202 5 view .LVU188
 1029 0078 FFF7FEFF 		bl	Error_Handler
 1030              	.LVL129:
 1031              	.L59:
 208:Core/Src/main.c ****   }
 1032              		.loc 1 208 5 view .LVU189
 1033 007c FFF7FEFF 		bl	Error_Handler
 1034              	.LVL130:
 1035              		.cfi_endproc
 1036              	.LFE69:
 1038              		.global	__aeabi_i2f
 1039              		.global	__aeabi_fsub
 1040              		.global	__aeabi_fcmpeq
 1041              		.global	__aeabi_f2d
 1042              		.global	__aeabi_dmul
 1043              		.global	__aeabi_d2iz
 1044              		.global	__aeabi_fmul
 1045              		.global	__aeabi_f2iz
 1046              		.section	.rodata.main.str1.4,"aMS",%progbits,1
 1047              		.align	2
 1048              	.LC8:
 1049 0000 4144435F 		.ascii	"ADC_C: %d ADC_S: %d theta_deg: %d rad: %d (millirad"
 1049      433A2025 
 1049      64204144 
 1049      435F533A 
 1049      20256420 
 1050 0033 290D0A00 		.ascii	")\015\012\000"
 1051              		.section	.text.main,"ax",%progbits
 1052              		.align	1
 1053              		.global	main
 1054              		.syntax unified
 1055              		.thumb
 1056              		.thumb_func
 1058              	main:
 1059              	.LFB68:
  79:Core/Src/main.c **** 
 1060              		.loc 1 79 1 view -0
 1061              		.cfi_startproc
 1062              		@ args = 0, pretend = 0, frame = 0
 1063              		@ frame_needed = 0, uses_anonymous_args = 0
 1064 0000 F0B5     		push	{r4, r5, r6, r7, lr}
 1065              	.LCFI11:
 1066              		.cfi_def_cfa_offset 20
 1067              		.cfi_offset 4, -20
 1068              		.cfi_offset 5, -16
 1069              		.cfi_offset 6, -12
 1070              		.cfi_offset 7, -8
 1071              		.cfi_offset 14, -4
 1072 0002 83B0     		sub	sp, sp, #12
 1073              	.LCFI12:
 1074              		.cfi_def_cfa_offset 32
ARM GAS  /var/folders/8x/_y6g3dfs0698dfd49y4vcg_w0000gn/T//ccpEJ4cE.s 			page 32


  83:Core/Src/main.c ****   uint16_t cos_adc;
 1075              		.loc 1 83 3 view .LVU191
  84:Core/Src/main.c ****   float theta_rad;
 1076              		.loc 1 84 3 view .LVU192
  85:Core/Src/main.c ****   int theta_deg; // only for debugging
 1077              		.loc 1 85 3 view .LVU193
  86:Core/Src/main.c **** 
 1078              		.loc 1 86 3 view .LVU194
  88:Core/Src/main.c ****   int cos; 
 1079              		.loc 1 88 3 view .LVU195
  89:Core/Src/main.c ****   int rad; 
 1080              		.loc 1 89 3 view .LVU196
  90:Core/Src/main.c ****   int deg;
 1081              		.loc 1 90 3 view .LVU197
  91:Core/Src/main.c ****   /* USER CODE END 1 */
 1082              		.loc 1 91 3 view .LVU198
  97:Core/Src/main.c **** 
 1083              		.loc 1 97 3 view .LVU199
 1084 0004 FFF7FEFF 		bl	HAL_Init
 1085              	.LVL131:
 104:Core/Src/main.c **** 
 1086              		.loc 1 104 3 view .LVU200
 1087 0008 FFF7FEFF 		bl	SystemClock_Config
 1088              	.LVL132:
 111:Core/Src/main.c ****   MX_ADC1_Init();
 1089              		.loc 1 111 3 view .LVU201
 1090 000c FFF7FEFF 		bl	MX_GPIO_Init
 1091              	.LVL133:
 112:Core/Src/main.c ****   MX_ADC2_Init();
 1092              		.loc 1 112 3 view .LVU202
 1093 0010 FFF7FEFF 		bl	MX_ADC1_Init
 1094              	.LVL134:
 113:Core/Src/main.c ****   MX_USART1_UART_Init();
 1095              		.loc 1 113 3 view .LVU203
 1096 0014 FFF7FEFF 		bl	MX_ADC2_Init
 1097              	.LVL135:
 114:Core/Src/main.c ****   MX_TIM2_Init();
 1098              		.loc 1 114 3 view .LVU204
 1099 0018 FFF7FEFF 		bl	MX_USART1_UART_Init
 1100              	.LVL136:
 115:Core/Src/main.c ****   /* USER CODE BEGIN 2 */
 1101              		.loc 1 115 3 view .LVU205
 1102 001c FFF7FEFF 		bl	MX_TIM2_Init
 1103              	.LVL137:
 1104 0020 23E0     		b	.L63
 1105              	.LVL138:
 1106              	.L68:
 1107              	.LBB6:
 138:Core/Src/main.c ****     }
 1108              		.loc 1 138 7 view .LVU206
 138:Core/Src/main.c ****     }
 1109              		.loc 1 138 19 is_stmt 0 view .LVU207
 1110 0022 3946     		mov	r1, r7
 1111 0024 3046     		mov	r0, r6
 1112 0026 FFF7FEFF 		bl	atan2f
 1113              	.LVL139:
 1114 002a 0746     		mov	r7, r0
ARM GAS  /var/folders/8x/_y6g3dfs0698dfd49y4vcg_w0000gn/T//ccpEJ4cE.s 			page 33


 1115              	.LVL140:
 1116              	.L61:
 146:Core/Src/main.c **** 
 1117              		.loc 1 146 5 is_stmt 1 view .LVU208
 146:Core/Src/main.c **** 
 1118              		.loc 1 146 36 is_stmt 0 view .LVU209
 1119 002c 3846     		mov	r0, r7
 1120 002e FFF7FEFF 		bl	__aeabi_f2d
 1121              	.LVL141:
 1122 0032 27A3     		adr	r3, .L69
 1123 0034 D3E90023 		ldrd	r2, [r3]
 1124 0038 FFF7FEFF 		bl	__aeabi_dmul
 1125              	.LVL142:
 146:Core/Src/main.c **** 
 1126              		.loc 1 146 17 view .LVU210
 1127 003c FFF7FEFF 		bl	__aeabi_d2iz
 1128              	.LVL143:
 146:Core/Src/main.c **** 
 1129              		.loc 1 146 15 view .LVU211
 1130 0040 00F1B406 		add	r6, r0, #180
 1131              	.LVL144:
 156:Core/Src/main.c ****     printf("ADC_C: %d ADC_S: %d theta_deg: %d rad: %d (millirad)\r\n", cos_adc, sin_adc, theta_deg,
 1132              		.loc 1 156 5 is_stmt 1 view .LVU212
 156:Core/Src/main.c ****     printf("ADC_C: %d ADC_S: %d theta_deg: %d rad: %d (millirad)\r\n", cos_adc, sin_adc, theta_deg,
 1133              		.loc 1 156 27 is_stmt 0 view .LVU213
 1134 0044 2449     		ldr	r1, .L69+8
 1135 0046 3846     		mov	r0, r7
 1136 0048 FFF7FEFF 		bl	__aeabi_fmul
 1137              	.LVL145:
 156:Core/Src/main.c ****     printf("ADC_C: %d ADC_S: %d theta_deg: %d rad: %d (millirad)\r\n", cos_adc, sin_adc, theta_deg,
 1138              		.loc 1 156 9 view .LVU214
 1139 004c FFF7FEFF 		bl	__aeabi_f2iz
 1140              	.LVL146:
 157:Core/Src/main.c **** 
 1141              		.loc 1 157 5 is_stmt 1 view .LVU215
 1142 0050 0090     		str	r0, [sp]
 1143 0052 3346     		mov	r3, r6
 1144 0054 2A46     		mov	r2, r5
 1145 0056 2146     		mov	r1, r4
 1146 0058 2048     		ldr	r0, .L69+12
 1147              	.LVL147:
 157:Core/Src/main.c **** 
 1148              		.loc 1 157 5 is_stmt 0 view .LVU216
 1149 005a FFF7FEFF 		bl	printf
 1150              	.LVL148:
 159:Core/Src/main.c ****     HAL_Delay(10); 
 1151              		.loc 1 159 5 is_stmt 1 view .LVU217
 1152 005e 3046     		mov	r0, r6
 1153 0060 FFF7FEFF 		bl	HallPositionOutput_10Pair
 1154              	.LVL149:
 160:Core/Src/main.c ****     
 1155              		.loc 1 160 5 view .LVU218
 1156 0064 0A20     		movs	r0, #10
 1157 0066 FFF7FEFF 		bl	HAL_Delay
 1158              	.LVL150:
 1159              	.LBE6:
 122:Core/Src/main.c ****     HAL_ADC_Start(&hadc1); // Needs to be called every time
ARM GAS  /var/folders/8x/_y6g3dfs0698dfd49y4vcg_w0000gn/T//ccpEJ4cE.s 			page 34


 1160              		.loc 1 122 9 view .LVU219
 1161              	.L63:
 122:Core/Src/main.c ****     HAL_ADC_Start(&hadc1); // Needs to be called every time
 1162              		.loc 1 122 3 view .LVU220
 1163              	.LBB7:
 123:Core/Src/main.c ****     HAL_ADC_PollForConversion(&hadc1, HAL_MAX_DELAY);
 1164              		.loc 1 123 5 view .LVU221
 1165 006a 1D4C     		ldr	r4, .L69+16
 1166 006c 2046     		mov	r0, r4
 1167 006e FFF7FEFF 		bl	HAL_ADC_Start
 1168              	.LVL151:
 124:Core/Src/main.c ****     cos_adc = HAL_ADC_GetValue(&hadc1);
 1169              		.loc 1 124 5 view .LVU222
 1170 0072 4FF0FF31 		mov	r1, #-1
 1171 0076 2046     		mov	r0, r4
 1172 0078 FFF7FEFF 		bl	HAL_ADC_PollForConversion
 1173              	.LVL152:
 125:Core/Src/main.c ****     HAL_ADC_Start(&hadc2); // Needs to be called every time
 1174              		.loc 1 125 5 view .LVU223
 125:Core/Src/main.c ****     HAL_ADC_Start(&hadc2); // Needs to be called every time
 1175              		.loc 1 125 15 is_stmt 0 view .LVU224
 1176 007c 2046     		mov	r0, r4
 1177 007e FFF7FEFF 		bl	HAL_ADC_GetValue
 1178              	.LVL153:
 1179 0082 0446     		mov	r4, r0
 1180              	.LVL154:
 126:Core/Src/main.c ****     HAL_ADC_PollForConversion(&hadc2, HAL_MAX_DELAY);
 1181              		.loc 1 126 5 is_stmt 1 view .LVU225
 1182 0084 174D     		ldr	r5, .L69+20
 1183 0086 2846     		mov	r0, r5
 1184 0088 FFF7FEFF 		bl	HAL_ADC_Start
 1185              	.LVL155:
 127:Core/Src/main.c ****     sin_adc = HAL_ADC_GetValue(&hadc2);
 1186              		.loc 1 127 5 view .LVU226
 1187 008c 4FF0FF31 		mov	r1, #-1
 1188 0090 2846     		mov	r0, r5
 1189 0092 FFF7FEFF 		bl	HAL_ADC_PollForConversion
 1190              	.LVL156:
 128:Core/Src/main.c **** 
 1191              		.loc 1 128 5 view .LVU227
 128:Core/Src/main.c **** 
 1192              		.loc 1 128 15 is_stmt 0 view .LVU228
 1193 0096 2846     		mov	r0, r5
 1194 0098 FFF7FEFF 		bl	HAL_ADC_GetValue
 1195              	.LVL157:
 1196 009c 0546     		mov	r5, r0
 1197              	.LVL158:
 134:Core/Src/main.c ****     float num = cos_adc - midpoint;
 1198              		.loc 1 134 5 is_stmt 1 view .LVU229
 135:Core/Src/main.c ****     float den = sin_adc - midpoint;
 1199              		.loc 1 135 5 view .LVU230
 135:Core/Src/main.c ****     float den = sin_adc - midpoint;
 1200              		.loc 1 135 25 is_stmt 0 view .LVU231
 1201 009e A4B2     		uxth	r4, r4
 135:Core/Src/main.c ****     float den = sin_adc - midpoint;
 1202              		.loc 1 135 25 view .LVU232
 1203 00a0 2046     		mov	r0, r4
ARM GAS  /var/folders/8x/_y6g3dfs0698dfd49y4vcg_w0000gn/T//ccpEJ4cE.s 			page 35


 1204 00a2 FFF7FEFF 		bl	__aeabi_i2f
 1205              	.LVL159:
 135:Core/Src/main.c ****     float den = sin_adc - midpoint;
 1206              		.loc 1 135 11 view .LVU233
 1207 00a6 1049     		ldr	r1, .L69+24
 1208 00a8 FFF7FEFF 		bl	__aeabi_fsub
 1209              	.LVL160:
 1210 00ac 0646     		mov	r6, r0
 1211              	.LVL161:
 136:Core/Src/main.c ****     if (den != 0){
 1212              		.loc 1 136 5 is_stmt 1 view .LVU234
 136:Core/Src/main.c ****     if (den != 0){
 1213              		.loc 1 136 25 is_stmt 0 view .LVU235
 1214 00ae ADB2     		uxth	r5, r5
 136:Core/Src/main.c ****     if (den != 0){
 1215              		.loc 1 136 25 view .LVU236
 1216 00b0 2846     		mov	r0, r5
 1217              	.LVL162:
 136:Core/Src/main.c ****     if (den != 0){
 1218              		.loc 1 136 25 view .LVU237
 1219 00b2 FFF7FEFF 		bl	__aeabi_i2f
 1220              	.LVL163:
 136:Core/Src/main.c ****     if (den != 0){
 1221              		.loc 1 136 11 view .LVU238
 1222 00b6 0C49     		ldr	r1, .L69+24
 1223 00b8 FFF7FEFF 		bl	__aeabi_fsub
 1224              	.LVL164:
 1225 00bc 0746     		mov	r7, r0
 1226              	.LVL165:
 137:Core/Src/main.c ****       theta_rad = atan2f(num, den); // Use atan2 for better handling of quadrants
 1227              		.loc 1 137 5 is_stmt 1 view .LVU239
 137:Core/Src/main.c ****       theta_rad = atan2f(num, den); // Use atan2 for better handling of quadrants
 1228              		.loc 1 137 8 is_stmt 0 view .LVU240
 1229 00be 0021     		movs	r1, #0
 1230 00c0 FFF7FEFF 		bl	__aeabi_fcmpeq
 1231              	.LVL166:
 137:Core/Src/main.c ****       theta_rad = atan2f(num, den); // Use atan2 for better handling of quadrants
 1232              		.loc 1 137 8 view .LVU241
 1233 00c4 0028     		cmp	r0, #0
 1234 00c6 ACD0     		beq	.L68
 141:Core/Src/main.c ****     }
 1235              		.loc 1 141 17 view .LVU242
 1236 00c8 0027     		movs	r7, #0
 1237              	.LVL167:
 141:Core/Src/main.c ****     }
 1238              		.loc 1 141 17 view .LVU243
 1239 00ca AFE7     		b	.L61
 1240              	.L70:
 1241 00cc AFF30080 		.align	3
 1242              	.L69:
 1243 00d0 F8C1631A 		.word	442745336
 1244 00d4 DCA54C40 		.word	1078765020
 1245 00d8 00007A44 		.word	1148846080
 1246 00dc 00000000 		.word	.LC8
 1247 00e0 00000000 		.word	hadc1
 1248 00e4 00000000 		.word	hadc2
 1249 00e8 00882645 		.word	1160153088
ARM GAS  /var/folders/8x/_y6g3dfs0698dfd49y4vcg_w0000gn/T//ccpEJ4cE.s 			page 36


 1250              	.LBE7:
 1251              		.cfi_endproc
 1252              	.LFE68:
 1254              		.global	ATAN_LUT
 1255              		.section	.rodata.ATAN_LUT,"a"
 1256              		.align	2
 1259              	ATAN_LUT:
 1260 0000 00000000 		.word	0
 1261 0004 2120803A 		.word	981475361
 1262 0008 F61F003B 		.word	989863926
 1263 000c DB2F403B 		.word	994062299
 1264 0010 E01F803B 		.word	998252512
 1265 0014 BE27A03B 		.word	1000351678
 1266 0018 852FC03B 		.word	1002450821
 1267 001c 2237E03B 		.word	1004549922
 1268 0020 601F003C 		.word	1006640992
 1269 0024 1923103C 		.word	1007690521
 1270 0028 BC26203C 		.word	1008740028
 1271 002c 4A2A303C 		.word	1009789514
 1272 0030 CD2D403C 		.word	1010838989
 1273 0034 3031503C 		.word	1011888432
 1274 0038 7E34603C 		.word	1012937854
 1275 003c AB37703C 		.word	1013987243
 1276 0040 5C1D803C 		.word	1015029084
 1277 0044 D31E883C 		.word	1015553747
 1278 0048 3920903C 		.word	1016078393
 1279 004c 8F21983C 		.word	1016603023
 1280 0050 D022A03C 		.word	1017127632
 1281 0054 0124A83C 		.word	1017652225
 1282 0058 1725B03C 		.word	1018176791
 1283 005c 1C26B83C 		.word	1018701340
 1284 0060 0727C03C 		.word	1019225863
 1285 0064 D727C83C 		.word	1019750359
 1286 0068 9228D03C 		.word	1020274834
 1287 006c 3729D83C 		.word	1020799287
 1288 0070 BC29E03C 		.word	1021323708
 1289 0074 262AE83C 		.word	1021848102
 1290 0078 702AF03C 		.word	1022372464
 1291 007c 9F2AF83C 		.word	1022896799
 1292 0080 5715003D 		.word	1023415639
 1293 0084 4E15043D 		.word	1023677774
 1294 0088 3515083D 		.word	1023939893
 1295 008c 0C150C3D 		.word	1024201996
 1296 0090 D014103D 		.word	1024464080
 1297 0094 8214143D 		.word	1024726146
 1298 0098 2314183D 		.word	1024988195
 1299 009c AF131C3D 		.word	1025250223
 1300 00a0 2B13203D 		.word	1025512235
 1301 00a4 8F12243D 		.word	1025774223
 1302 00a8 DF11283D 		.word	1026036191
 1303 00ac 1E112C3D 		.word	1026298142
 1304 00b0 4310303D 		.word	1026560067
 1305 00b4 540F343D 		.word	1026821972
 1306 00b8 4F0E383D 		.word	1027083855
 1307 00bc 320D3C3D 		.word	1027345714
 1308 00c0 FC0B403D 		.word	1027607548
 1309 00c4 B10A443D 		.word	1027869361
ARM GAS  /var/folders/8x/_y6g3dfs0698dfd49y4vcg_w0000gn/T//ccpEJ4cE.s 			page 37


 1310 00c8 4C09483D 		.word	1028131148
 1311 00cc CE074C3D 		.word	1028392910
 1312 00d0 3806503D 		.word	1028654648
 1313 00d4 8704543D 		.word	1028916359
 1314 00d8 BB02583D 		.word	1029178043
 1315 00dc D5005C3D 		.word	1029439701
 1316 00e0 D3FE5F3D 		.word	1029701331
 1317 00e4 B4FC633D 		.word	1029962932
 1318 00e8 7BFA673D 		.word	1030224507
 1319 00ec 23F86B3D 		.word	1030486051
 1320 00f0 AFF56F3D 		.word	1030747567
 1321 00f4 1CF3733D 		.word	1031009052
 1322 00f8 6CF0773D 		.word	1031270508
 1323 00fc 9CED7B3D 		.word	1031531932
 1324 0100 AFEA7F3D 		.word	1031793327
 1325 0104 CFF3813D 		.word	1031926735
 1326 0108 38F2833D 		.word	1032057400
 1327 010c 90F0853D 		.word	1032188048
 1328 0110 D7EE873D 		.word	1032318679
 1329 0114 0EED893D 		.word	1032449294
 1330 0118 33EB8B3D 		.word	1032579891
 1331 011c 47E98D3D 		.word	1032710471
 1332 0120 49E78F3D 		.word	1032841033
 1333 0124 3BE5913D 		.word	1032971579
 1334 0128 18E3933D 		.word	1033102104
 1335 012c E4E0953D 		.word	1033232612
 1336 0130 9DDE973D 		.word	1033363101
 1337 0134 45DC993D 		.word	1033493573
 1338 0138 D7D99B3D 		.word	1033624023
 1339 013c 58D79D3D 		.word	1033754456
 1340 0140 C4D49F3D 		.word	1033884868
 1341 0144 1DD2A13D 		.word	1034015261
 1342 0148 61CFA33D 		.word	1034145633
 1343 014c 92CCA53D 		.word	1034275986
 1344 0150 AEC9A73D 		.word	1034406318
 1345 0154 B4C6A93D 		.word	1034536628
 1346 0158 A7C3AB3D 		.word	1034666919
 1347 015c 84C0AD3D 		.word	1034797188
 1348 0160 4ABDAF3D 		.word	1034927434
 1349 0164 FCB9B13D 		.word	1035057660
 1350 0168 98B6B33D 		.word	1035187864
 1351 016c 1DB3B53D 		.word	1035318045
 1352 0170 8CAFB73D 		.word	1035448204
 1353 0174 E4ABB93D 		.word	1035578340
 1354 0178 26A8BB3D 		.word	1035708454
 1355 017c 4FA4BD3D 		.word	1035838543
 1356 0180 61A0BF3D 		.word	1035968609
 1357 0184 5D9CC13D 		.word	1036098653
 1358 0188 4098C33D 		.word	1036228672
 1359 018c 0C94C53D 		.word	1036358668
 1360 0190 BD8FC73D 		.word	1036488637
 1361 0194 578BC93D 		.word	1036618583
 1362 0198 D886CB3D 		.word	1036748504
 1363 019c 4082CD3D 		.word	1036878400
 1364 01a0 907DCF3D 		.word	1037008272
 1365 01a4 C578D13D 		.word	1037138117
 1366 01a8 E073D33D 		.word	1037267936
ARM GAS  /var/folders/8x/_y6g3dfs0698dfd49y4vcg_w0000gn/T//ccpEJ4cE.s 			page 38


 1367 01ac E16ED53D 		.word	1037397729
 1368 01b0 C969D73D 		.word	1037527497
 1369 01b4 9664D93D 		.word	1037657238
 1370 01b8 475FDB3D 		.word	1037786951
 1371 01bc DF59DD3D 		.word	1037916639
 1372 01c0 5A54DF3D 		.word	1038046298
 1373 01c4 BA4EE13D 		.word	1038175930
 1374 01c8 0049E33D 		.word	1038305536
 1375 01cc 2843E53D 		.word	1038435112
 1376 01d0 353DE73D 		.word	1038564661
 1377 01d4 2537E93D 		.word	1038694181
 1378 01d8 F930EB3D 		.word	1038823673
 1379 01dc B12AED3D 		.word	1038953137
 1380 01e0 4924EF3D 		.word	1039082569
 1381 01e4 C61DF13D 		.word	1039211974
 1382 01e8 2517F33D 		.word	1039341349
 1383 01ec 6710F53D 		.word	1039470695
 1384 01f0 8B09F73D 		.word	1039600011
 1385 01f4 9002F93D 		.word	1039729296
 1386 01f8 77FBFA3D 		.word	1039858551
 1387 01fc 3FF4FC3D 		.word	1039987775
 1388 0200 E8ECFE3D 		.word	1040116968
 1389 0204 BA72003E 		.word	1040216762
 1390 0208 EF6E013E 		.word	1040281327
 1391 020c 146B023E 		.word	1040345876
 1392 0210 2A67033E 		.word	1040410410
 1393 0214 3063043E 		.word	1040474928
 1394 0218 265F053E 		.word	1040539430
 1395 021c 0B5B063E 		.word	1040603915
 1396 0220 E056073E 		.word	1040668384
 1397 0224 A452083E 		.word	1040732836
 1398 0228 584E093E 		.word	1040797272
 1399 022c FC490A3E 		.word	1040861692
 1400 0230 8E450B3E 		.word	1040926094
 1401 0234 10410C3E 		.word	1040990480
 1402 0238 803C0D3E 		.word	1041054848
 1403 023c E0370E3E 		.word	1041119200
 1404 0240 2E330F3E 		.word	1041183534
 1405 0244 6A2E103E 		.word	1041247850
 1406 0248 9629113E 		.word	1041312150
 1407 024c B024123E 		.word	1041376432
 1408 0250 B81F133E 		.word	1041440696
 1409 0254 AE1A143E 		.word	1041504942
 1410 0258 9215153E 		.word	1041569170
 1411 025c 6510163E 		.word	1041633381
 1412 0260 250B173E 		.word	1041697573
 1413 0264 D305183E 		.word	1041761747
 1414 0268 6F00193E 		.word	1041825903
 1415 026c F8FA193E 		.word	1041890040
 1416 0270 6EF51A3E 		.word	1041954158
 1417 0274 D2EF1B3E 		.word	1042018258
 1418 0278 24EA1C3E 		.word	1042082340
 1419 027c 62E41D3E 		.word	1042146402
 1420 0280 8DDE1E3E 		.word	1042210445
 1421 0284 A5D81F3E 		.word	1042274469
 1422 0288 AAD2203E 		.word	1042338474
 1423 028c 9CCC213E 		.word	1042402460
ARM GAS  /var/folders/8x/_y6g3dfs0698dfd49y4vcg_w0000gn/T//ccpEJ4cE.s 			page 39


 1424 0290 79C6223E 		.word	1042466425
 1425 0294 44C0233E 		.word	1042530372
 1426 0298 FBB9243E 		.word	1042594299
 1427 029c 9EB3253E 		.word	1042658206
 1428 02a0 2DAD263E 		.word	1042722093
 1429 02a4 A9A6273E 		.word	1042785961
 1430 02a8 10A0283E 		.word	1042849808
 1431 02ac 6399293E 		.word	1042913635
 1432 02b0 A2922A3E 		.word	1042977442
 1433 02b4 CD8B2B3E 		.word	1043041229
 1434 02b8 E2842C3E 		.word	1043104994
 1435 02bc E47D2D3E 		.word	1043168740
 1436 02c0 D0762E3E 		.word	1043232464
 1437 02c4 A86F2F3E 		.word	1043296168
 1438 02c8 6B68303E 		.word	1043359851
 1439 02cc 1861313E 		.word	1043423512
 1440 02d0 B259323E 		.word	1043487154
 1441 02d4 3552333E 		.word	1043550773
 1442 02d8 A34A343E 		.word	1043614371
 1443 02dc FB42353E 		.word	1043677947
 1444 02e0 3F3B363E 		.word	1043741503
 1445 02e4 6C33373E 		.word	1043805036
 1446 02e8 842B383E 		.word	1043868548
 1447 02ec 8623393E 		.word	1043932038
 1448 02f0 721B3A3E 		.word	1043995506
 1449 02f4 48133B3E 		.word	1044058952
 1450 02f8 080B3C3E 		.word	1044122376
 1451 02fc B1023D3E 		.word	1044185777
 1452 0300 44FA3D3E 		.word	1044249156
 1453 0304 C1F13E3E 		.word	1044312513
 1454 0308 27E93F3E 		.word	1044375847
 1455 030c 77E0403E 		.word	1044439159
 1456 0310 AFD7413E 		.word	1044502447
 1457 0314 D1CE423E 		.word	1044565713
 1458 0318 DCC5433E 		.word	1044628956
 1459 031c D0BC443E 		.word	1044692176
 1460 0320 ACB3453E 		.word	1044755372
 1461 0324 72AA463E 		.word	1044818546
 1462 0328 20A1473E 		.word	1044881696
 1463 032c B797483E 		.word	1044944823
 1464 0330 358E493E 		.word	1045007925
 1465 0334 9D844A3E 		.word	1045071005
 1466 0338 EC7A4B3E 		.word	1045134060
 1467 033c 24714C3E 		.word	1045197092
 1468 0340 44674D3E 		.word	1045260100
 1469 0344 4C5D4E3E 		.word	1045323084
 1470 0348 3B534F3E 		.word	1045386043
 1471 034c 1349503E 		.word	1045448979
 1472 0350 D23E513E 		.word	1045511890
 1473 0354 7834523E 		.word	1045574776
 1474 0358 062A533E 		.word	1045637638
 1475 035c 7C1F543E 		.word	1045700476
 1476 0360 D814553E 		.word	1045763288
 1477 0364 1C0A563E 		.word	1045826076
 1478 0368 47FF563E 		.word	1045888839
 1479 036c 59F4573E 		.word	1045951577
 1480 0370 52E9583E 		.word	1046014290
ARM GAS  /var/folders/8x/_y6g3dfs0698dfd49y4vcg_w0000gn/T//ccpEJ4cE.s 			page 40


 1481 0374 32DE593E 		.word	1046076978
 1482 0378 F8D25A3E 		.word	1046139640
 1483 037c A5C75B3E 		.word	1046202277
 1484 0380 39BC5C3E 		.word	1046264889
 1485 0384 B3B05D3E 		.word	1046327475
 1486 0388 13A55E3E 		.word	1046390035
 1487 038c 5A995F3E 		.word	1046452570
 1488 0390 868D603E 		.word	1046515078
 1489 0394 9981613E 		.word	1046577561
 1490 0398 9175623E 		.word	1046640017
 1491 039c 7069633E 		.word	1046702448
 1492 03a0 355D643E 		.word	1046764853
 1493 03a4 DE50653E 		.word	1046827230
 1494 03a8 6E44663E 		.word	1046889582
 1495 03ac E337673E 		.word	1046951907
 1496 03b0 3E2B683E 		.word	1047014206
 1497 03b4 7E1E693E 		.word	1047076478
 1498 03b8 A3116A3E 		.word	1047138723
 1499 03bc AD046B3E 		.word	1047200941
 1500 03c0 9DF76B3E 		.word	1047263133
 1501 03c4 71EA6C3E 		.word	1047325297
 1502 03c8 2ADD6D3E 		.word	1047387434
 1503 03cc C8CF6E3E 		.word	1047449544
 1504 03d0 4BC26F3E 		.word	1047511627
 1505 03d4 B2B4703E 		.word	1047573682
 1506 03d8 FEA6713E 		.word	1047635710
 1507 03dc 2E99723E 		.word	1047697710
 1508 03e0 438B733E 		.word	1047759683
 1509 03e4 3C7D743E 		.word	1047821628
 1510 03e8 196F753E 		.word	1047883545
 1511 03ec DA60763E 		.word	1047945434
 1512 03f0 7F52773E 		.word	1048007295
 1513 03f4 0844783E 		.word	1048069128
 1514 03f8 7535793E 		.word	1048130933
 1515 03fc C6267A3E 		.word	1048192710
 1516 0400 FA177B3E 		.word	1048254458
 1517 0404 12097C3E 		.word	1048316178
 1518 0408 0EFA7C3E 		.word	1048377870
 1519 040c ECEA7D3E 		.word	1048439532
 1520 0410 AEDB7E3E 		.word	1048501166
 1521 0414 54CC7F3E 		.word	1048562772
 1522 0418 6E5E803E 		.word	1048600174
 1523 041c A4D6803E 		.word	1048630948
 1524 0420 CB4E813E 		.word	1048661707
 1525 0424 E4C6813E 		.word	1048692452
 1526 0428 EE3E823E 		.word	1048723182
 1527 042c EAB6823E 		.word	1048753898
 1528 0430 D72E833E 		.word	1048784599
 1529 0434 B5A6833E 		.word	1048815285
 1530 0438 841E843E 		.word	1048845956
 1531 043c 4596843E 		.word	1048876613
 1532 0440 F60D853E 		.word	1048907254
 1533 0444 9A85853E 		.word	1048937882
 1534 0448 2EFD853E 		.word	1048968494
 1535 044c B374863E 		.word	1048999091
 1536 0450 28EC863E 		.word	1049029672
 1537 0454 8F63873E 		.word	1049060239
ARM GAS  /var/folders/8x/_y6g3dfs0698dfd49y4vcg_w0000gn/T//ccpEJ4cE.s 			page 41


 1538 0458 E7DA873E 		.word	1049090791
 1539 045c 3052883E 		.word	1049121328
 1540 0460 6AC9883E 		.word	1049151850
 1541 0464 9440893E 		.word	1049182356
 1542 0468 B0B7893E 		.word	1049212848
 1543 046c BC2E8A3E 		.word	1049243324
 1544 0470 B8A58A3E 		.word	1049273784
 1545 0474 A61C8B3E 		.word	1049304230
 1546 0478 84938B3E 		.word	1049334660
 1547 047c 520A8C3E 		.word	1049365074
 1548 0480 11818C3E 		.word	1049395473
 1549 0484 C1F78C3E 		.word	1049425857
 1550 0488 616E8D3E 		.word	1049456225
 1551 048c F1E48D3E 		.word	1049486577
 1552 0490 725B8E3E 		.word	1049516914
 1553 0494 E3D18E3E 		.word	1049547235
 1554 0498 45488F3E 		.word	1049577541
 1555 049c 97BE8F3E 		.word	1049607831
 1556 04a0 D934903E 		.word	1049638105
 1557 04a4 0BAB903E 		.word	1049668363
 1558 04a8 2D21913E 		.word	1049698605
 1559 04ac 4097913E 		.word	1049728832
 1560 04b0 420D923E 		.word	1049759042
 1561 04b4 3583923E 		.word	1049789237
 1562 04b8 18F9923E 		.word	1049819416
 1563 04bc EB6E933E 		.word	1049849579
 1564 04c0 ADE4933E 		.word	1049879725
 1565 04c4 605A943E 		.word	1049909856
 1566 04c8 02D0943E 		.word	1049939970
 1567 04cc 9445953E 		.word	1049970068
 1568 04d0 16BB953E 		.word	1050000150
 1569 04d4 8830963E 		.word	1050030216
 1570 04d8 EAA5963E 		.word	1050060266
 1571 04dc 3B1B973E 		.word	1050090299
 1572 04e0 7C90973E 		.word	1050120316
 1573 04e4 AD05983E 		.word	1050150317
 1574 04e8 CC7A983E 		.word	1050180300
 1575 04ec DCEF983E 		.word	1050210268
 1576 04f0 DC64993E 		.word	1050240220
 1577 04f4 CAD9993E 		.word	1050270154
 1578 04f8 A84E9A3E 		.word	1050300072
 1579 04fc 76C39A3E 		.word	1050329974
 1580 0500 33389B3E 		.word	1050359859
 1581 0504 DFAC9B3E 		.word	1050389727
 1582 0508 7B219C3E 		.word	1050419579
 1583 050c 06969C3E 		.word	1050449414
 1584 0510 800A9D3E 		.word	1050479232
 1585 0514 EA7E9D3E 		.word	1050509034
 1586 0518 42F39D3E 		.word	1050538818
 1587 051c 8A679E3E 		.word	1050568586
 1588 0520 C1DB9E3E 		.word	1050598337
 1589 0524 E74F9F3E 		.word	1050628071
 1590 0528 FCC39F3E 		.word	1050657788
 1591 052c 0038A03E 		.word	1050687488
 1592 0530 F3ABA03E 		.word	1050717171
 1593 0534 D61FA13E 		.word	1050746838
 1594 0538 A793A13E 		.word	1050776487
ARM GAS  /var/folders/8x/_y6g3dfs0698dfd49y4vcg_w0000gn/T//ccpEJ4cE.s 			page 42


 1595 053c 6607A23E 		.word	1050806118
 1596 0540 157BA23E 		.word	1050835733
 1597 0544 B3EEA23E 		.word	1050865331
 1598 0548 3F62A33E 		.word	1050894911
 1599 054c BAD5A33E 		.word	1050924474
 1600 0550 2449A43E 		.word	1050954020
 1601 0554 7DBCA43E 		.word	1050983549
 1602 0558 C42FA53E 		.word	1051013060
 1603 055c FAA2A53E 		.word	1051042554
 1604 0560 1F16A63E 		.word	1051072031
 1605 0564 3289A63E 		.word	1051101490
 1606 0568 34FCA63E 		.word	1051130932
 1607 056c 256FA73E 		.word	1051160357
 1608 0570 03E2A73E 		.word	1051189763
 1609 0574 D154A83E 		.word	1051219153
 1610 0578 8DC7A83E 		.word	1051248525
 1611 057c 373AA93E 		.word	1051277879
 1612 0580 CFACA93E 		.word	1051307215
 1613 0584 561FAA3E 		.word	1051336534
 1614 0588 CC91AA3E 		.word	1051365836
 1615 058c 2F04AB3E 		.word	1051395119
 1616 0590 8176AB3E 		.word	1051424385
 1617 0594 C1E8AB3E 		.word	1051453633
 1618 0598 EF5AAC3E 		.word	1051482863
 1619 059c 0CCDAC3E 		.word	1051512076
 1620 05a0 173FAD3E 		.word	1051541271
 1621 05a4 0FB1AD3E 		.word	1051570447
 1622 05a8 F622AE3E 		.word	1051599606
 1623 05ac CB94AE3E 		.word	1051628747
 1624 05b0 8E06AF3E 		.word	1051657870
 1625 05b4 3F78AF3E 		.word	1051686975
 1626 05b8 DEE9AF3E 		.word	1051716062
 1627 05bc 6B5BB03E 		.word	1051745131
 1628 05c0 E6CCB03E 		.word	1051774182
 1629 05c4 4F3EB13E 		.word	1051803215
 1630 05c8 A6AFB13E 		.word	1051832230
 1631 05cc EB20B23E 		.word	1051861227
 1632 05d0 1D92B23E 		.word	1051890205
 1633 05d4 3D03B33E 		.word	1051919165
 1634 05d8 4B74B33E 		.word	1051948107
 1635 05dc 47E5B33E 		.word	1051977031
 1636 05e0 3156B43E 		.word	1052005937
 1637 05e4 08C7B43E 		.word	1052034824
 1638 05e8 CD37B53E 		.word	1052063693
 1639 05ec 7FA8B53E 		.word	1052092543
 1640 05f0 2019B63E 		.word	1052121376
 1641 05f4 AE89B63E 		.word	1052150190
 1642 05f8 29FAB63E 		.word	1052178985
 1643 05fc 926AB73E 		.word	1052207762
 1644 0600 E8DAB73E 		.word	1052236520
 1645 0604 2C4BB83E 		.word	1052265260
 1646 0608 5EBBB83E 		.word	1052293982
 1647 060c 7D2BB93E 		.word	1052322685
 1648 0610 899BB93E 		.word	1052351369
 1649 0614 830BBA3E 		.word	1052380035
 1650 0618 6A7BBA3E 		.word	1052408682
 1651 061c 3FEBBA3E 		.word	1052437311
ARM GAS  /var/folders/8x/_y6g3dfs0698dfd49y4vcg_w0000gn/T//ccpEJ4cE.s 			page 43


 1652 0620 015BBB3E 		.word	1052465921
 1653 0624 B0CABB3E 		.word	1052494512
 1654 0628 4C3ABC3E 		.word	1052523084
 1655 062c D6A9BC3E 		.word	1052551638
 1656 0630 4D19BD3E 		.word	1052580173
 1657 0634 B188BD3E 		.word	1052608689
 1658 0638 03F8BD3E 		.word	1052637187
 1659 063c 4267BE3E 		.word	1052665666
 1660 0640 6DD6BE3E 		.word	1052694125
 1661 0644 8645BF3E 		.word	1052722566
 1662 0648 8CB4BF3E 		.word	1052750988
 1663 064c 7F23C03E 		.word	1052779391
 1664 0650 6092C03E 		.word	1052807776
 1665 0654 2D01C13E 		.word	1052836141
 1666 0658 E76FC13E 		.word	1052864487
 1667 065c 8EDEC13E 		.word	1052892814
 1668 0660 224DC23E 		.word	1052921122
 1669 0664 A4BBC23E 		.word	1052949412
 1670 0668 122AC33E 		.word	1052977682
 1671 066c 6D98C33E 		.word	1053005933
 1672 0670 B506C43E 		.word	1053034165
 1673 0674 EA74C43E 		.word	1053062378
 1674 0678 0CE3C43E 		.word	1053090572
 1675 067c 1A51C53E 		.word	1053118746
 1676 0680 15BFC53E 		.word	1053146901
 1677 0684 FE2CC63E 		.word	1053175038
 1678 0688 D39AC63E 		.word	1053203155
 1679 068c 9508C73E 		.word	1053231253
 1680 0690 4376C73E 		.word	1053259331
 1681 0694 DEE3C73E 		.word	1053287390
 1682 0698 6651C83E 		.word	1053315430
 1683 069c DBBEC83E 		.word	1053343451
 1684 06a0 3C2CC93E 		.word	1053371452
 1685 06a4 8A99C93E 		.word	1053399434
 1686 06a8 C406CA3E 		.word	1053427396
 1687 06ac EB73CA3E 		.word	1053455339
 1688 06b0 FFE0CA3E 		.word	1053483263
 1689 06b4 FF4DCB3E 		.word	1053511167
 1690 06b8 ECBACB3E 		.word	1053539052
 1691 06bc C527CC3E 		.word	1053566917
 1692 06c0 8B94CC3E 		.word	1053594763
 1693 06c4 3E01CD3E 		.word	1053622590
 1694 06c8 DC6DCD3E 		.word	1053650396
 1695 06cc 68DACD3E 		.word	1053678184
 1696 06d0 E046CE3E 		.word	1053705952
 1697 06d4 44B3CE3E 		.word	1053733700
 1698 06d8 941FCF3E 		.word	1053761428
 1699 06dc D18BCF3E 		.word	1053789137
 1700 06e0 FAF7CF3E 		.word	1053816826
 1701 06e4 1064D03E 		.word	1053844496
 1702 06e8 12D0D03E 		.word	1053872146
 1703 06ec 013CD13E 		.word	1053899777
 1704 06f0 DBA7D13E 		.word	1053927387
 1705 06f4 A213D23E 		.word	1053954978
 1706 06f8 557FD23E 		.word	1053982549
 1707 06fc F5EAD23E 		.word	1054010101
 1708 0700 8156D33E 		.word	1054037633
ARM GAS  /var/folders/8x/_y6g3dfs0698dfd49y4vcg_w0000gn/T//ccpEJ4cE.s 			page 44


 1709 0704 F9C1D33E 		.word	1054065145
 1710 0708 5D2DD43E 		.word	1054092637
 1711 070c AE98D43E 		.word	1054120110
 1712 0710 EA03D53E 		.word	1054147562
 1713 0714 136FD53E 		.word	1054174995
 1714 0718 27DAD53E 		.word	1054202407
 1715 071c 2945D63E 		.word	1054229801
 1716 0720 16B0D63E 		.word	1054257174
 1717 0724 EF1AD73E 		.word	1054284527
 1718 0728 B485D73E 		.word	1054311860
 1719 072c 66F0D73E 		.word	1054339174
 1720 0730 035BD83E 		.word	1054366467
 1721 0734 8DC5D83E 		.word	1054393741
 1722 0738 0230D93E 		.word	1054420994
 1723 073c 649AD93E 		.word	1054448228
 1724 0740 B204DA3E 		.word	1054475442
 1725 0744 EB6EDA3E 		.word	1054502635
 1726 0748 11D9DA3E 		.word	1054529809
 1727 074c 2243DB3E 		.word	1054556962
 1728 0750 20ADDB3E 		.word	1054584096
 1729 0754 0917DC3E 		.word	1054611209
 1730 0758 DF80DC3E 		.word	1054638303
 1731 075c A0EADC3E 		.word	1054665376
 1732 0760 4D54DD3E 		.word	1054692429
 1733 0764 E6BDDD3E 		.word	1054719462
 1734 0768 6B27DE3E 		.word	1054746475
 1735 076c DC90DE3E 		.word	1054773468
 1736 0770 38FADE3E 		.word	1054800440
 1737 0774 8163DF3E 		.word	1054827393
 1738 0778 B5CCDF3E 		.word	1054854325
 1739 077c D535E03E 		.word	1054881237
 1740 0780 E19EE03E 		.word	1054908129
 1741 0784 D907E13E 		.word	1054935001
 1742 0788 BD70E13E 		.word	1054961853
 1743 078c 8CD9E13E 		.word	1054988684
 1744 0790 4742E23E 		.word	1055015495
 1745 0794 EEAAE23E 		.word	1055042286
 1746 0798 8013E33E 		.word	1055069056
 1747 079c FE7BE33E 		.word	1055095806
 1748 07a0 68E4E33E 		.word	1055122536
 1749 07a4 BE4CE43E 		.word	1055149246
 1750 07a8 FFB4E43E 		.word	1055175935
 1751 07ac 2C1DE53E 		.word	1055202604
 1752 07b0 4585E53E 		.word	1055229253
 1753 07b4 49EDE53E 		.word	1055255881
 1754 07b8 3955E63E 		.word	1055282489
 1755 07bc 15BDE63E 		.word	1055309077
 1756 07c0 DC24E73E 		.word	1055335644
 1757 07c4 8F8CE73E 		.word	1055362191
 1758 07c8 2DF4E73E 		.word	1055388717
 1759 07cc B75BE83E 		.word	1055415223
 1760 07d0 2DC3E83E 		.word	1055441709
 1761 07d4 8E2AE93E 		.word	1055468174
 1762 07d8 DB91E93E 		.word	1055494619
 1763 07dc 14F9E93E 		.word	1055521044
 1764 07e0 3760EA3E 		.word	1055547447
 1765 07e4 47C7EA3E 		.word	1055573831
ARM GAS  /var/folders/8x/_y6g3dfs0698dfd49y4vcg_w0000gn/T//ccpEJ4cE.s 			page 45


 1766 07e8 422EEB3E 		.word	1055600194
 1767 07ec 2895EB3E 		.word	1055626536
 1768 07f0 FBFBEB3E 		.word	1055652859
 1769 07f4 B862EC3E 		.word	1055679160
 1770 07f8 61C9EC3E 		.word	1055705441
 1771 07fc F62FED3E 		.word	1055731702
 1772 0800 7696ED3E 		.word	1055757942
 1773 0804 E1FCED3E 		.word	1055784161
 1774 0808 3863EE3E 		.word	1055810360
 1775 080c 7BC9EE3E 		.word	1055836539
 1776 0810 A92FEF3E 		.word	1055862697
 1777 0814 C295EF3E 		.word	1055888834
 1778 0818 C7FBEF3E 		.word	1055914951
 1779 081c B761F03E 		.word	1055941047
 1780 0820 92C7F03E 		.word	1055967122
 1781 0824 592DF13E 		.word	1055993177
 1782 0828 0C93F13E 		.word	1056019212
 1783 082c AAF8F13E 		.word	1056045226
 1784 0830 335EF23E 		.word	1056071219
 1785 0834 A7C3F23E 		.word	1056097191
 1786 0838 0729F33E 		.word	1056123143
 1787 083c 538EF33E 		.word	1056149075
 1788 0840 8AF3F33E 		.word	1056174986
 1789 0844 AC58F43E 		.word	1056200876
 1790 0848 B9BDF43E 		.word	1056226745
 1791 084c B222F53E 		.word	1056252594
 1792 0850 9687F53E 		.word	1056278422
 1793 0854 66ECF53E 		.word	1056304230
 1794 0858 2151F63E 		.word	1056330017
 1795 085c C7B5F63E 		.word	1056355783
 1796 0860 581AF73E 		.word	1056381528
 1797 0864 D57EF73E 		.word	1056407253
 1798 0868 3DE3F73E 		.word	1056432957
 1799 086c 9147F83E 		.word	1056458641
 1800 0870 CFABF83E 		.word	1056484303
 1801 0874 F90FF93E 		.word	1056509945
 1802 0878 0F74F93E 		.word	1056535567
 1803 087c 0FD8F93E 		.word	1056561167
 1804 0880 FB3BFA3E 		.word	1056586747
 1805 0884 D29FFA3E 		.word	1056612306
 1806 0888 9503FB3E 		.word	1056637845
 1807 088c 4267FB3E 		.word	1056663362
 1808 0890 DBCAFB3E 		.word	1056688859
 1809 0894 602EFC3E 		.word	1056714336
 1810 0898 CF91FC3E 		.word	1056739791
 1811 089c 2AF5FC3E 		.word	1056765226
 1812 08a0 7058FD3E 		.word	1056790640
 1813 08a4 A1BBFD3E 		.word	1056816033
 1814 08a8 BE1EFE3E 		.word	1056841406
 1815 08ac C581FE3E 		.word	1056866757
 1816 08b0 B8E4FE3E 		.word	1056892088
 1817 08b4 9647FF3E 		.word	1056917398
 1818 08b8 60AAFF3E 		.word	1056942688
 1819 08bc 8A06003F 		.word	1056966282
 1820 08c0 DA37003F 		.word	1056978906
 1821 08c4 1F69003F 		.word	1056991519
 1822 08c8 5B9A003F 		.word	1057004123
ARM GAS  /var/folders/8x/_y6g3dfs0698dfd49y4vcg_w0000gn/T//ccpEJ4cE.s 			page 46


 1823 08cc 8CCB003F 		.word	1057016716
 1824 08d0 B2FC003F 		.word	1057029298
 1825 08d4 CE2D013F 		.word	1057041870
 1826 08d8 DF5E013F 		.word	1057054431
 1827 08dc E68F013F 		.word	1057066982
 1828 08e0 E3C0013F 		.word	1057079523
 1829 08e4 D6F1013F 		.word	1057092054
 1830 08e8 BD22023F 		.word	1057104573
 1831 08ec 9B53023F 		.word	1057117083
 1832 08f0 6E84023F 		.word	1057129582
 1833 08f4 37B5023F 		.word	1057142071
 1834 08f8 F5E5023F 		.word	1057154549
 1835 08fc A916033F 		.word	1057167017
 1836 0900 5347033F 		.word	1057179475
 1837 0904 F277033F 		.word	1057191922
 1838 0908 87A8033F 		.word	1057204359
 1839 090c 11D9033F 		.word	1057216785
 1840 0910 9109043F 		.word	1057229201
 1841 0914 063A043F 		.word	1057241606
 1842 0918 716A043F 		.word	1057254001
 1843 091c D29A043F 		.word	1057266386
 1844 0920 28CB043F 		.word	1057278760
 1845 0924 74FB043F 		.word	1057291124
 1846 0928 B52B053F 		.word	1057303477
 1847 092c EC5B053F 		.word	1057315820
 1848 0930 198C053F 		.word	1057328153
 1849 0934 3BBC053F 		.word	1057340475
 1850 0938 53EC053F 		.word	1057352787
 1851 093c 601C063F 		.word	1057365088
 1852 0940 634C063F 		.word	1057377379
 1853 0944 5C7C063F 		.word	1057389660
 1854 0948 4AAC063F 		.word	1057401930
 1855 094c 2EDC063F 		.word	1057414190
 1856 0950 070C073F 		.word	1057426439
 1857 0954 D63B073F 		.word	1057438678
 1858 0958 9A6B073F 		.word	1057450906
 1859 095c 549B073F 		.word	1057463124
 1860 0960 04CB073F 		.word	1057475332
 1861 0964 A9FA073F 		.word	1057487529
 1862 0968 442A083F 		.word	1057499716
 1863 096c D559083F 		.word	1057511893
 1864 0970 5B89083F 		.word	1057524059
 1865 0974 D6B8083F 		.word	1057536214
 1866 0978 47E8083F 		.word	1057548359
 1867 097c AE17093F 		.word	1057560494
 1868 0980 0B47093F 		.word	1057572619
 1869 0984 5C76093F 		.word	1057584732
 1870 0988 A4A5093F 		.word	1057596836
 1871 098c E1D4093F 		.word	1057608929
 1872 0990 14040A3F 		.word	1057621012
 1873 0994 3C330A3F 		.word	1057633084
 1874 0998 5A620A3F 		.word	1057645146
 1875 099c 6E910A3F 		.word	1057657198
 1876 09a0 77C00A3F 		.word	1057669239
 1877 09a4 76EF0A3F 		.word	1057681270
 1878 09a8 6A1E0B3F 		.word	1057693290
 1879 09ac 544D0B3F 		.word	1057705300
ARM GAS  /var/folders/8x/_y6g3dfs0698dfd49y4vcg_w0000gn/T//ccpEJ4cE.s 			page 47


 1880 09b0 347C0B3F 		.word	1057717300
 1881 09b4 09AB0B3F 		.word	1057729289
 1882 09b8 D4D90B3F 		.word	1057741268
 1883 09bc 94080C3F 		.word	1057753236
 1884 09c0 4A370C3F 		.word	1057765194
 1885 09c4 F5650C3F 		.word	1057777141
 1886 09c8 97940C3F 		.word	1057789079
 1887 09cc 2EC30C3F 		.word	1057801006
 1888 09d0 BAF10C3F 		.word	1057812922
 1889 09d4 3C200D3F 		.word	1057824828
 1890 09d8 B44E0D3F 		.word	1057836724
 1891 09dc 217D0D3F 		.word	1057848609
 1892 09e0 84AB0D3F 		.word	1057860484
 1893 09e4 DDD90D3F 		.word	1057872349
 1894 09e8 2B080E3F 		.word	1057884203
 1895 09ec 6F360E3F 		.word	1057896047
 1896 09f0 A8640E3F 		.word	1057907880
 1897 09f4 D7920E3F 		.word	1057919703
 1898 09f8 FCC00E3F 		.word	1057931516
 1899 09fc 16EF0E3F 		.word	1057943318
 1900 0a00 261D0F3F 		.word	1057955110
 1901 0a04 2C4B0F3F 		.word	1057966892
 1902 0a08 27790F3F 		.word	1057978663
 1903 0a0c 18A70F3F 		.word	1057990424
 1904 0a10 FED40F3F 		.word	1058002174
 1905 0a14 DB02103F 		.word	1058013915
 1906 0a18 AC30103F 		.word	1058025644
 1907 0a1c 745E103F 		.word	1058037364
 1908 0a20 318C103F 		.word	1058049073
 1909 0a24 E4B9103F 		.word	1058060772
 1910 0a28 8CE7103F 		.word	1058072460
 1911 0a2c 2B15113F 		.word	1058084139
 1912 0a30 BE42113F 		.word	1058095806
 1913 0a34 4870113F 		.word	1058107464
 1914 0a38 C79D113F 		.word	1058119111
 1915 0a3c 3CCB113F 		.word	1058130748
 1916 0a40 A6F8113F 		.word	1058142374
 1917 0a44 0626123F 		.word	1058153990
 1918 0a48 5C53123F 		.word	1058165596
 1919 0a4c A880123F 		.word	1058177192
 1920 0a50 E9AD123F 		.word	1058188777
 1921 0a54 20DB123F 		.word	1058200352
 1922 0a58 4C08133F 		.word	1058211916
 1923 0a5c 6E35133F 		.word	1058223470
 1924 0a60 8662133F 		.word	1058235014
 1925 0a64 948F133F 		.word	1058246548
 1926 0a68 97BC133F 		.word	1058258071
 1927 0a6c 90E9133F 		.word	1058269584
 1928 0a70 7F16143F 		.word	1058281087
 1929 0a74 6443143F 		.word	1058292580
 1930 0a78 3E70143F 		.word	1058304062
 1931 0a7c 0E9D143F 		.word	1058315534
 1932 0a80 D3C9143F 		.word	1058326995
 1933 0a84 8FF6143F 		.word	1058338447
 1934 0a88 4023153F 		.word	1058349888
 1935 0a8c E64F153F 		.word	1058361318
 1936 0a90 837C153F 		.word	1058372739
ARM GAS  /var/folders/8x/_y6g3dfs0698dfd49y4vcg_w0000gn/T//ccpEJ4cE.s 			page 48


 1937 0a94 15A9153F 		.word	1058384149
 1938 0a98 9DD5153F 		.word	1058395549
 1939 0a9c 1B02163F 		.word	1058406939
 1940 0aa0 8F2E163F 		.word	1058418319
 1941 0aa4 F85A163F 		.word	1058429688
 1942 0aa8 5787163F 		.word	1058441047
 1943 0aac ABB3163F 		.word	1058452395
 1944 0ab0 F6DF163F 		.word	1058463734
 1945 0ab4 360C173F 		.word	1058475062
 1946 0ab8 6C38173F 		.word	1058486380
 1947 0abc 9864173F 		.word	1058497688
 1948 0ac0 BA90173F 		.word	1058508986
 1949 0ac4 D1BC173F 		.word	1058520273
 1950 0ac8 DEE8173F 		.word	1058531550
 1951 0acc E114183F 		.word	1058542817
 1952 0ad0 DA40183F 		.word	1058554074
 1953 0ad4 C86C183F 		.word	1058565320
 1954 0ad8 AC98183F 		.word	1058576556
 1955 0adc 87C4183F 		.word	1058587783
 1956 0ae0 56F0183F 		.word	1058598998
 1957 0ae4 1C1C193F 		.word	1058610204
 1958 0ae8 D847193F 		.word	1058621400
 1959 0aec 8973193F 		.word	1058632585
 1960 0af0 309F193F 		.word	1058643760
 1961 0af4 CDCA193F 		.word	1058654925
 1962 0af8 60F6193F 		.word	1058666080
 1963 0afc E8211A3F 		.word	1058677224
 1964 0b00 674D1A3F 		.word	1058688359
 1965 0b04 DB781A3F 		.word	1058699483
 1966 0b08 45A41A3F 		.word	1058710597
 1967 0b0c A5CF1A3F 		.word	1058721701
 1968 0b10 FBFA1A3F 		.word	1058732795
 1969 0b14 47261B3F 		.word	1058743879
 1970 0b18 88511B3F 		.word	1058754952
 1971 0b1c C07C1B3F 		.word	1058766016
 1972 0b20 EDA71B3F 		.word	1058777069
 1973 0b24 10D31B3F 		.word	1058788112
 1974 0b28 29FE1B3F 		.word	1058799145
 1975 0b2c 38291C3F 		.word	1058810168
 1976 0b30 3D541C3F 		.word	1058821181
 1977 0b34 377F1C3F 		.word	1058832183
 1978 0b38 28AA1C3F 		.word	1058843176
 1979 0b3c 0ED51C3F 		.word	1058854158
 1980 0b40 EBFF1C3F 		.word	1058865131
 1981 0b44 BD2A1D3F 		.word	1058876093
 1982 0b48 85551D3F 		.word	1058887045
 1983 0b4c 43801D3F 		.word	1058897987
 1984 0b50 F7AA1D3F 		.word	1058908919
 1985 0b54 A1D51D3F 		.word	1058919841
 1986 0b58 41001E3F 		.word	1058930753
 1987 0b5c D72A1E3F 		.word	1058941655
 1988 0b60 63551E3F 		.word	1058952547
 1989 0b64 E57F1E3F 		.word	1058963429
 1990 0b68 5CAA1E3F 		.word	1058974300
 1991 0b6c CAD41E3F 		.word	1058985162
 1992 0b70 2DFF1E3F 		.word	1058996013
 1993 0b74 87291F3F 		.word	1059006855
ARM GAS  /var/folders/8x/_y6g3dfs0698dfd49y4vcg_w0000gn/T//ccpEJ4cE.s 			page 49


 1994 0b78 D7531F3F 		.word	1059017687
 1995 0b7c 1C7E1F3F 		.word	1059028508
 1996 0b80 57A81F3F 		.word	1059039319
 1997 0b84 89D21F3F 		.word	1059050121
 1998 0b88 B0FC1F3F 		.word	1059060912
 1999 0b8c CE26203F 		.word	1059071694
 2000 0b90 E150203F 		.word	1059082465
 2001 0b94 EB7A203F 		.word	1059093227
 2002 0b98 EAA4203F 		.word	1059103978
 2003 0b9c E0CE203F 		.word	1059114720
 2004 0ba0 CBF8203F 		.word	1059125451
 2005 0ba4 AD22213F 		.word	1059136173
 2006 0ba8 844C213F 		.word	1059146884
 2007 0bac 5276213F 		.word	1059157586
 2008 0bb0 15A0213F 		.word	1059168277
 2009 0bb4 CFC9213F 		.word	1059178959
 2010 0bb8 7FF3213F 		.word	1059189631
 2011 0bbc 241D223F 		.word	1059200292
 2012 0bc0 C046223F 		.word	1059210944
 2013 0bc4 5270223F 		.word	1059221586
 2014 0bc8 DA99223F 		.word	1059232218
 2015 0bcc 58C3223F 		.word	1059242840
 2016 0bd0 CCEC223F 		.word	1059253452
 2017 0bd4 3716233F 		.word	1059264055
 2018 0bd8 973F233F 		.word	1059274647
 2019 0bdc ED68233F 		.word	1059285229
 2020 0be0 3A92233F 		.word	1059295802
 2021 0be4 7CBB233F 		.word	1059306364
 2022 0be8 B5E4233F 		.word	1059316917
 2023 0bec E40D243F 		.word	1059327460
 2024 0bf0 0937243F 		.word	1059337993
 2025 0bf4 2460243F 		.word	1059348516
 2026 0bf8 3589243F 		.word	1059359029
 2027 0bfc 3DB2243F 		.word	1059369533
 2028 0c00 3ADB243F 		.word	1059380026
 2029 0c04 2E04253F 		.word	1059390510
 2030 0c08 182D253F 		.word	1059400984
 2031 0c0c F855253F 		.word	1059411448
 2032 0c10 CE7E253F 		.word	1059421902
 2033 0c14 9BA7253F 		.word	1059432347
 2034 0c18 5DD0253F 		.word	1059442781
 2035 0c1c 16F9253F 		.word	1059453206
 2036 0c20 C521263F 		.word	1059463621
 2037 0c24 6A4A263F 		.word	1059474026
 2038 0c28 0573263F 		.word	1059484421
 2039 0c2c 979B263F 		.word	1059494807
 2040 0c30 1FC4263F 		.word	1059505183
 2041 0c34 9DEC263F 		.word	1059515549
 2042 0c38 1115273F 		.word	1059525905
 2043 0c3c 7B3D273F 		.word	1059536251
 2044 0c40 DC65273F 		.word	1059546588
 2045 0c44 338E273F 		.word	1059556915
 2046 0c48 80B6273F 		.word	1059567232
 2047 0c4c C4DE273F 		.word	1059577540
 2048 0c50 FD06283F 		.word	1059587837
 2049 0c54 2D2F283F 		.word	1059598125
 2050 0c58 5457283F 		.word	1059608404
ARM GAS  /var/folders/8x/_y6g3dfs0698dfd49y4vcg_w0000gn/T//ccpEJ4cE.s 			page 50


 2051 0c5c 707F283F 		.word	1059618672
 2052 0c60 83A7283F 		.word	1059628931
 2053 0c64 8CCF283F 		.word	1059639180
 2054 0c68 8CF7283F 		.word	1059649420
 2055 0c6c 821F293F 		.word	1059659650
 2056 0c70 6E47293F 		.word	1059669870
 2057 0c74 506F293F 		.word	1059680080
 2058 0c78 2997293F 		.word	1059690281
 2059 0c7c F8BE293F 		.word	1059700472
 2060 0c80 BDE6293F 		.word	1059710653
 2061 0c84 790E2A3F 		.word	1059720825
 2062 0c88 2B362A3F 		.word	1059730987
 2063 0c8c D45D2A3F 		.word	1059741140
 2064 0c90 72852A3F 		.word	1059751282
 2065 0c94 08AD2A3F 		.word	1059761416
 2066 0c98 93D42A3F 		.word	1059771539
 2067 0c9c 15FC2A3F 		.word	1059781653
 2068 0ca0 8D232B3F 		.word	1059791757
 2069 0ca4 FC4A2B3F 		.word	1059801852
 2070 0ca8 61722B3F 		.word	1059811937
 2071 0cac BD992B3F 		.word	1059822013
 2072 0cb0 0FC12B3F 		.word	1059832079
 2073 0cb4 57E82B3F 		.word	1059842135
 2074 0cb8 960F2C3F 		.word	1059852182
 2075 0cbc CB362C3F 		.word	1059862219
 2076 0cc0 F75D2C3F 		.word	1059872247
 2077 0cc4 19852C3F 		.word	1059882265
 2078 0cc8 32AC2C3F 		.word	1059892274
 2079 0ccc 41D32C3F 		.word	1059902273
 2080 0cd0 46FA2C3F 		.word	1059912262
 2081 0cd4 42212D3F 		.word	1059922242
 2082 0cd8 35482D3F 		.word	1059932213
 2083 0cdc 1E6F2D3F 		.word	1059942174
 2084 0ce0 FD952D3F 		.word	1059952125
 2085 0ce4 D3BC2D3F 		.word	1059962067
 2086 0ce8 A0E32D3F 		.word	1059972000
 2087 0cec 630A2E3F 		.word	1059981923
 2088 0cf0 1C312E3F 		.word	1059991836
 2089 0cf4 CC572E3F 		.word	1060001740
 2090 0cf8 737E2E3F 		.word	1060011635
 2091 0cfc 10A52E3F 		.word	1060021520
 2092 0d00 A4CB2E3F 		.word	1060031396
 2093 0d04 2EF22E3F 		.word	1060041262
 2094 0d08 AE182F3F 		.word	1060051118
 2095 0d0c 263F2F3F 		.word	1060060966
 2096 0d10 94652F3F 		.word	1060070804
 2097 0d14 F88B2F3F 		.word	1060080632
 2098 0d18 53B22F3F 		.word	1060090451
 2099 0d1c A5D82F3F 		.word	1060100261
 2100 0d20 EDFE2F3F 		.word	1060110061
 2101 0d24 2C25303F 		.word	1060119852
 2102 0d28 614B303F 		.word	1060129633
 2103 0d2c 8E71303F 		.word	1060139406
 2104 0d30 B097303F 		.word	1060149168
 2105 0d34 CABD303F 		.word	1060158922
 2106 0d38 DAE3303F 		.word	1060168666
 2107 0d3c E009313F 		.word	1060178400
ARM GAS  /var/folders/8x/_y6g3dfs0698dfd49y4vcg_w0000gn/T//ccpEJ4cE.s 			page 51


 2108 0d40 DE2F313F 		.word	1060188126
 2109 0d44 D255313F 		.word	1060197842
 2110 0d48 BC7B313F 		.word	1060207548
 2111 0d4c 9EA1313F 		.word	1060217246
 2112 0d50 76C7313F 		.word	1060226934
 2113 0d54 44ED313F 		.word	1060236612
 2114 0d58 0A13323F 		.word	1060246282
 2115 0d5c C638323F 		.word	1060255942
 2116 0d60 795E323F 		.word	1060265593
 2117 0d64 2284323F 		.word	1060275234
 2118 0d68 C2A9323F 		.word	1060284866
 2119 0d6c 59CF323F 		.word	1060294489
 2120 0d70 E7F4323F 		.word	1060304103
 2121 0d74 6C1A333F 		.word	1060313708
 2122 0d78 E73F333F 		.word	1060323303
 2123 0d7c 5965333F 		.word	1060332889
 2124 0d80 C28A333F 		.word	1060342466
 2125 0d84 21B0333F 		.word	1060352033
 2126 0d88 77D5333F 		.word	1060361591
 2127 0d8c C5FA333F 		.word	1060371141
 2128 0d90 0820343F 		.word	1060380680
 2129 0d94 4345343F 		.word	1060390211
 2130 0d98 756A343F 		.word	1060399733
 2131 0d9c 9D8F343F 		.word	1060409245
 2132 0da0 BCB4343F 		.word	1060418748
 2133 0da4 D2D9343F 		.word	1060428242
 2134 0da8 DFFE343F 		.word	1060437727
 2135 0dac E323353F 		.word	1060447203
 2136 0db0 DD48353F 		.word	1060456669
 2137 0db4 CF6D353F 		.word	1060466127
 2138 0db8 B792353F 		.word	1060475575
 2139 0dbc 96B7353F 		.word	1060485014
 2140 0dc0 6CDC353F 		.word	1060494444
 2141 0dc4 3901363F 		.word	1060503865
 2142 0dc8 FD25363F 		.word	1060513277
 2143 0dcc B74A363F 		.word	1060522679
 2144 0dd0 696F363F 		.word	1060532073
 2145 0dd4 1194363F 		.word	1060541457
 2146 0dd8 B1B8363F 		.word	1060550833
 2147 0ddc 47DD363F 		.word	1060560199
 2148 0de0 D501373F 		.word	1060569557
 2149 0de4 5926373F 		.word	1060578905
 2150 0de8 D44A373F 		.word	1060588244
 2151 0dec 466F373F 		.word	1060597574
 2152 0df0 B093373F 		.word	1060606896
 2153 0df4 10B8373F 		.word	1060616208
 2154 0df8 67DC373F 		.word	1060625511
 2155 0dfc B500383F 		.word	1060634805
 2156 0e00 FA24383F 		.word	1060644090
 2157 0e04 3649383F 		.word	1060653366
 2158 0e08 696D383F 		.word	1060662633
 2159 0e0c 9491383F 		.word	1060671892
 2160 0e10 B5B5383F 		.word	1060681141
 2161 0e14 CDD9383F 		.word	1060690381
 2162 0e18 DCFD383F 		.word	1060699612
 2163 0e1c E321393F 		.word	1060708835
 2164 0e20 E045393F 		.word	1060718048
ARM GAS  /var/folders/8x/_y6g3dfs0698dfd49y4vcg_w0000gn/T//ccpEJ4cE.s 			page 52


 2165 0e24 D569393F 		.word	1060727253
 2166 0e28 C08D393F 		.word	1060736448
 2167 0e2c A3B1393F 		.word	1060745635
 2168 0e30 7CD5393F 		.word	1060754812
 2169 0e34 4DF9393F 		.word	1060763981
 2170 0e38 151D3A3F 		.word	1060773141
 2171 0e3c D4403A3F 		.word	1060782292
 2172 0e40 8A643A3F 		.word	1060791434
 2173 0e44 38883A3F 		.word	1060800568
 2174 0e48 DCAB3A3F 		.word	1060809692
 2175 0e4c 77CF3A3F 		.word	1060818807
 2176 0e50 0AF33A3F 		.word	1060827914
 2177 0e54 94163B3F 		.word	1060837012
 2178 0e58 153A3B3F 		.word	1060846101
 2179 0e5c 8D5D3B3F 		.word	1060855181
 2180 0e60 FD803B3F 		.word	1060864253
 2181 0e64 63A43B3F 		.word	1060873315
 2182 0e68 C1C73B3F 		.word	1060882369
 2183 0e6c 16EB3B3F 		.word	1060891414
 2184 0e70 620E3C3F 		.word	1060900450
 2185 0e74 A5313C3F 		.word	1060909477
 2186 0e78 E0543C3F 		.word	1060918496
 2187 0e7c 12783C3F 		.word	1060927506
 2188 0e80 3B9B3C3F 		.word	1060936507
 2189 0e84 5BBE3C3F 		.word	1060945499
 2190 0e88 73E13C3F 		.word	1060954483
 2191 0e8c 81043D3F 		.word	1060963457
 2192 0e90 88273D3F 		.word	1060972424
 2193 0e94 854A3D3F 		.word	1060981381
 2194 0e98 7A6D3D3F 		.word	1060990330
 2195 0e9c 66903D3F 		.word	1060999270
 2196 0ea0 49B33D3F 		.word	1061008201
 2197 0ea4 23D63D3F 		.word	1061017123
 2198 0ea8 F5F83D3F 		.word	1061026037
 2199 0eac BE1B3E3F 		.word	1061034942
 2200 0eb0 7F3E3E3F 		.word	1061043839
 2201 0eb4 37613E3F 		.word	1061052727
 2202 0eb8 E6833E3F 		.word	1061061606
 2203 0ebc 8DA63E3F 		.word	1061070477
 2204 0ec0 2BC93E3F 		.word	1061079339
 2205 0ec4 C0EB3E3F 		.word	1061088192
 2206 0ec8 4C0E3F3F 		.word	1061097036
 2207 0ecc D1303F3F 		.word	1061105873
 2208 0ed0 4C533F3F 		.word	1061114700
 2209 0ed4 BF753F3F 		.word	1061123519
 2210 0ed8 29983F3F 		.word	1061132329
 2211 0edc 8BBA3F3F 		.word	1061141131
 2212 0ee0 E4DC3F3F 		.word	1061149924
 2213 0ee4 34FF3F3F 		.word	1061158708
 2214 0ee8 7C21403F 		.word	1061167484
 2215 0eec BC43403F 		.word	1061176252
 2216 0ef0 F365403F 		.word	1061185011
 2217 0ef4 2188403F 		.word	1061193761
 2218 0ef8 47AA403F 		.word	1061202503
 2219 0efc 64CC403F 		.word	1061211236
 2220 0f00 79EE403F 		.word	1061219961
 2221 0f04 8510413F 		.word	1061228677
ARM GAS  /var/folders/8x/_y6g3dfs0698dfd49y4vcg_w0000gn/T//ccpEJ4cE.s 			page 53


 2222 0f08 8932413F 		.word	1061237385
 2223 0f0c 8454413F 		.word	1061246084
 2224 0f10 7776413F 		.word	1061254775
 2225 0f14 6198413F 		.word	1061263457
 2226 0f18 43BA413F 		.word	1061272131
 2227 0f1c 1CDC413F 		.word	1061280796
 2228 0f20 EEFD413F 		.word	1061289454
 2229 0f24 B61F423F 		.word	1061298102
 2230 0f28 7641423F 		.word	1061306742
 2231 0f2c 2E63423F 		.word	1061315374
 2232 0f30 DD84423F 		.word	1061323997
 2233 0f34 84A6423F 		.word	1061332612
 2234 0f38 22C8423F 		.word	1061341218
 2235 0f3c B8E9423F 		.word	1061349816
 2236 0f40 460B433F 		.word	1061358406
 2237 0f44 CB2C433F 		.word	1061366987
 2238 0f48 484E433F 		.word	1061375560
 2239 0f4c BC6F433F 		.word	1061384124
 2240 0f50 2891433F 		.word	1061392680
 2241 0f54 8CB2433F 		.word	1061401228
 2242 0f58 E7D3433F 		.word	1061409767
 2243 0f5c 3AF5433F 		.word	1061418298
 2244 0f60 8516443F 		.word	1061426821
 2245 0f64 C737443F 		.word	1061435335
 2246 0f68 0159443F 		.word	1061443841
 2247 0f6c 337A443F 		.word	1061452339
 2248 0f70 5D9B443F 		.word	1061460829
 2249 0f74 7EBC443F 		.word	1061469310
 2250 0f78 97DD443F 		.word	1061477783
 2251 0f7c A8FE443F 		.word	1061486248
 2252 0f80 B01F453F 		.word	1061494704
 2253 0f84 B040453F 		.word	1061503152
 2254 0f88 A861453F 		.word	1061511592
 2255 0f8c 9882453F 		.word	1061520024
 2256 0f90 7FA3453F 		.word	1061528447
 2257 0f94 5EC4453F 		.word	1061536862
 2258 0f98 35E5453F 		.word	1061545269
 2259 0f9c 0406463F 		.word	1061553668
 2260 0fa0 CA26463F 		.word	1061562058
 2261 0fa4 8947463F 		.word	1061570441
 2262 0fa8 3F68463F 		.word	1061578815
 2263 0fac ED88463F 		.word	1061587181
 2264 0fb0 93A9463F 		.word	1061595539
 2265 0fb4 30CA463F 		.word	1061603888
 2266 0fb8 C6EA463F 		.word	1061612230
 2267 0fbc 530B473F 		.word	1061620563
 2268 0fc0 D82B473F 		.word	1061628888
 2269 0fc4 554C473F 		.word	1061637205
 2270 0fc8 CA6C473F 		.word	1061645514
 2271 0fcc 378D473F 		.word	1061653815
 2272 0fd0 9CAD473F 		.word	1061662108
 2273 0fd4 F8CD473F 		.word	1061670392
 2274 0fd8 4DEE473F 		.word	1061678669
 2275 0fdc 990E483F 		.word	1061686937
 2276 0fe0 DE2E483F 		.word	1061695198
 2277 0fe4 1A4F483F 		.word	1061703450
 2278 0fe8 4E6F483F 		.word	1061711694
ARM GAS  /var/folders/8x/_y6g3dfs0698dfd49y4vcg_w0000gn/T//ccpEJ4cE.s 			page 54


 2279 0fec 7A8F483F 		.word	1061719930
 2280 0ff0 9FAF483F 		.word	1061728159
 2281 0ff4 BBCF483F 		.word	1061736379
 2282 0ff8 CFEF483F 		.word	1061744591
 2283 0ffc DB0F493F 		.word	1061752795
 2284              		.text
 2285              	.Letext0:
 2286              		.file 3 "/Applications/ArmGNUToolchain/13.3.rel1/arm-none-eabi/arm-none-eabi/include/machine/_defa
 2287              		.file 4 "/Applications/ArmGNUToolchain/13.3.rel1/arm-none-eabi/arm-none-eabi/include/sys/_stdint.h
 2288              		.file 5 "Drivers/CMSIS/Device/ST/STM32F1xx/Include/stm32f103x6.h"
 2289              		.file 6 "Drivers/CMSIS/Device/ST/STM32F1xx/Include/stm32f1xx.h"
 2290              		.file 7 "Drivers/STM32F1xx_HAL_Driver/Inc/stm32f1xx_hal_def.h"
 2291              		.file 8 "Drivers/STM32F1xx_HAL_Driver/Inc/stm32f1xx_hal_rcc.h"
 2292              		.file 9 "Drivers/STM32F1xx_HAL_Driver/Inc/stm32f1xx_hal_rcc_ex.h"
 2293              		.file 10 "Drivers/STM32F1xx_HAL_Driver/Inc/stm32f1xx_hal_gpio.h"
 2294              		.file 11 "Drivers/STM32F1xx_HAL_Driver/Inc/stm32f1xx_hal_dma.h"
 2295              		.file 12 "Drivers/STM32F1xx_HAL_Driver/Inc/stm32f1xx_hal_adc.h"
 2296              		.file 13 "Drivers/STM32F1xx_HAL_Driver/Inc/stm32f1xx_hal_uart.h"
 2297              		.file 14 "Core/Inc/adc.h"
 2298              		.file 15 "Core/Inc/usart.h"
 2299              		.file 16 "Core/Inc/atan_lut.h"
 2300              		.file 17 "Drivers/STM32F1xx_HAL_Driver/Inc/stm32f1xx_hal.h"
 2301              		.file 18 "/Applications/ArmGNUToolchain/13.3.rel1/arm-none-eabi/arm-none-eabi/include/stdio.h"
 2302              		.file 19 "/Applications/ArmGNUToolchain/13.3.rel1/arm-none-eabi/arm-none-eabi/include/math.h"
 2303              		.file 20 "Core/Inc/tim.h"
 2304              		.file 21 "Core/Inc/gpio.h"
 2305              		.file 22 "<built-in>"
ARM GAS  /var/folders/8x/_y6g3dfs0698dfd49y4vcg_w0000gn/T//ccpEJ4cE.s 			page 55


DEFINED SYMBOLS
                            *ABS*:00000000 main.c
/var/folders/8x/_y6g3dfs0698dfd49y4vcg_w0000gn/T//ccpEJ4cE.s:19     .rodata.HallPositionOutput.str1.4:00000000 $d
/var/folders/8x/_y6g3dfs0698dfd49y4vcg_w0000gn/T//ccpEJ4cE.s:41     .text.HallPositionOutput:00000000 $t
/var/folders/8x/_y6g3dfs0698dfd49y4vcg_w0000gn/T//ccpEJ4cE.s:47     .text.HallPositionOutput:00000000 HallPositionOutput
/var/folders/8x/_y6g3dfs0698dfd49y4vcg_w0000gn/T//ccpEJ4cE.s:276    .text.HallPositionOutput:00000128 $d
/var/folders/8x/_y6g3dfs0698dfd49y4vcg_w0000gn/T//ccpEJ4cE.s:288    .text.HallPositionOutput_10Pair:00000000 $t
/var/folders/8x/_y6g3dfs0698dfd49y4vcg_w0000gn/T//ccpEJ4cE.s:294    .text.HallPositionOutput_10Pair:00000000 HallPositionOutput_10Pair
/var/folders/8x/_y6g3dfs0698dfd49y4vcg_w0000gn/T//ccpEJ4cE.s:321    .text.HallPositionOutput_10Pair:00000020 $d
/var/folders/8x/_y6g3dfs0698dfd49y4vcg_w0000gn/T//ccpEJ4cE.s:357    .text.HallPositionOutput_10Pair:00000044 $t
/var/folders/8x/_y6g3dfs0698dfd49y4vcg_w0000gn/T//ccpEJ4cE.s:541    .text.HallPositionOutput_10Pair:00000140 $d
/var/folders/8x/_y6g3dfs0698dfd49y4vcg_w0000gn/T//ccpEJ4cE.s:554    .text.HallPositionOutput_20Pair:00000000 $t
/var/folders/8x/_y6g3dfs0698dfd49y4vcg_w0000gn/T//ccpEJ4cE.s:560    .text.HallPositionOutput_20Pair:00000000 HallPositionOutput_20Pair
/var/folders/8x/_y6g3dfs0698dfd49y4vcg_w0000gn/T//ccpEJ4cE.s:587    .text.HallPositionOutput_20Pair:00000020 $d
/var/folders/8x/_y6g3dfs0698dfd49y4vcg_w0000gn/T//ccpEJ4cE.s:605    .text.HallPositionOutput_20Pair:00000032 $t
/var/folders/8x/_y6g3dfs0698dfd49y4vcg_w0000gn/T//ccpEJ4cE.s:789    .text.HallPositionOutput_20Pair:0000012c $d
/var/folders/8x/_y6g3dfs0698dfd49y4vcg_w0000gn/T//ccpEJ4cE.s:802    .text.__io_putchar:00000000 $t
/var/folders/8x/_y6g3dfs0698dfd49y4vcg_w0000gn/T//ccpEJ4cE.s:808    .text.__io_putchar:00000000 __io_putchar
/var/folders/8x/_y6g3dfs0698dfd49y4vcg_w0000gn/T//ccpEJ4cE.s:844    .text.__io_putchar:0000001c $d
/var/folders/8x/_y6g3dfs0698dfd49y4vcg_w0000gn/T//ccpEJ4cE.s:849    .rodata.Error_Handler.str1.4:00000000 $d
/var/folders/8x/_y6g3dfs0698dfd49y4vcg_w0000gn/T//ccpEJ4cE.s:853    .text.Error_Handler:00000000 $t
/var/folders/8x/_y6g3dfs0698dfd49y4vcg_w0000gn/T//ccpEJ4cE.s:859    .text.Error_Handler:00000000 Error_Handler
/var/folders/8x/_y6g3dfs0698dfd49y4vcg_w0000gn/T//ccpEJ4cE.s:901    .text.Error_Handler:00000014 $d
/var/folders/8x/_y6g3dfs0698dfd49y4vcg_w0000gn/T//ccpEJ4cE.s:906    .text.SystemClock_Config:00000000 $t
/var/folders/8x/_y6g3dfs0698dfd49y4vcg_w0000gn/T//ccpEJ4cE.s:912    .text.SystemClock_Config:00000000 SystemClock_Config
/var/folders/8x/_y6g3dfs0698dfd49y4vcg_w0000gn/T//ccpEJ4cE.s:1047   .rodata.main.str1.4:00000000 $d
/var/folders/8x/_y6g3dfs0698dfd49y4vcg_w0000gn/T//ccpEJ4cE.s:1052   .text.main:00000000 $t
/var/folders/8x/_y6g3dfs0698dfd49y4vcg_w0000gn/T//ccpEJ4cE.s:1058   .text.main:00000000 main
/var/folders/8x/_y6g3dfs0698dfd49y4vcg_w0000gn/T//ccpEJ4cE.s:1243   .text.main:000000d0 $d
/var/folders/8x/_y6g3dfs0698dfd49y4vcg_w0000gn/T//ccpEJ4cE.s:1259   .rodata.ATAN_LUT:00000000 ATAN_LUT
/var/folders/8x/_y6g3dfs0698dfd49y4vcg_w0000gn/T//ccpEJ4cE.s:1256   .rodata.ATAN_LUT:00000000 $d

UNDEFINED SYMBOLS
HAL_GPIO_WritePin
puts
printf
HAL_UART_Transmit
huart1
HAL_Delay
memset
HAL_RCC_OscConfig
HAL_RCC_ClockConfig
HAL_RCCEx_PeriphCLKConfig
__aeabi_i2f
__aeabi_fsub
__aeabi_fcmpeq
__aeabi_f2d
__aeabi_dmul
__aeabi_d2iz
__aeabi_fmul
__aeabi_f2iz
HAL_Init
MX_GPIO_Init
MX_ADC1_Init
MX_ADC2_Init
MX_USART1_UART_Init
MX_TIM2_Init
ARM GAS  /var/folders/8x/_y6g3dfs0698dfd49y4vcg_w0000gn/T//ccpEJ4cE.s 			page 56


atan2f
HAL_ADC_Start
HAL_ADC_PollForConversion
HAL_ADC_GetValue
hadc1
hadc2
